

Microchip Technology PIC18 LITE Macro Assembler V1.41 build -162212810 
                                                                                               Mon Dec 11 15:16:47 2017

Microchip Technology Omniscient Code Generator v1.41 (Free mode) build 201701250102
     1                           	processor	18F4550
     2                           	fnconf	rparam,??,?,0
     3                           	opt	pw 120
     4                           	opt	lm
     5                           	psect	idataBANK0,global,class=CODE,delta=1,noexec
     6                           	psect	idataBANK1,global,class=CODE,delta=1,noexec
     7                           	psect	smallconst,global,reloc=2,class=SMALLCONST,delta=1,noexec
     8                           	psect	cinit,global,reloc=2,class=CODE,delta=1
     9                           	psect	bssCOMRAM,global,class=COMRAM,space=1,delta=1,noexec
    10                           	psect	bssBANK0,global,class=BANK0,space=1,delta=1,lowdata,noexec
    11                           	psect	dataBANK0,global,class=BANK0,space=1,delta=1,lowdata,noexec
    12                           	psect	dataBANK1,global,class=BANK1,space=1,delta=1,lowdata,noexec
    13                           	psect	cstackBANK0,global,class=BANK0,space=1,delta=1,noexec
    14                           	psect	cstackCOMRAM,global,class=COMRAM,space=1,delta=1,noexec
    15                           	psect	text0,global,reloc=2,class=CODE,delta=1
    16                           	psect	text1,global,reloc=2,class=CODE,delta=1
    17                           	psect	text2,global,reloc=2,class=CODE,delta=1,group=1
    18                           	psect	text3,global,reloc=2,class=CODE,delta=1,group=1
    19                           	psect	text4,global,reloc=2,class=CODE,delta=1
    20                           	psect	text5,global,reloc=2,class=CODE,delta=1,group=2
    21                           	psect	text6,global,reloc=2,class=CODE,delta=1
    22                           	psect	text7,global,reloc=2,class=CODE,delta=1
    23                           	psect	text8,global,reloc=2,class=CODE,delta=1
    24                           	psect	text9,global,reloc=2,class=CODE,delta=1
    25                           	psect	text10,global,reloc=2,class=CODE,delta=1
    26                           	psect	text11,global,reloc=2,class=CODE,delta=1,group=1
    27                           	psect	text12,global,reloc=2,class=CODE,delta=1,group=1
    28                           	psect	text13,global,reloc=2,class=CODE,delta=1,group=1
    29                           	psect	text14,global,reloc=2,class=CODE,delta=1,group=1
    30                           	psect	text15,global,reloc=2,class=CODE,delta=1
    31                           	psect	text16,global,reloc=2,class=CODE,delta=1,group=2
    32                           	psect	text17,global,reloc=2,class=CODE,delta=1,group=2
    33                           	psect	intcode,global,reloc=2,class=CODE,delta=1
    34                           	psect	intcode_body,global,reloc=2,class=CODE,delta=1
    35                           	psect	text19,global,reloc=2,class=CODE,delta=1
    36                           	psect	text20,global,reloc=2,class=CODE,delta=1
    37                           	psect	text21,global,reloc=2,class=CODE,delta=1
    38                           	psect	text22,global,reloc=2,class=CODE,delta=1
    39                           	psect	text23,global,reloc=2,class=CODE,delta=1
    40                           	psect	text24,global,reloc=2,class=CODE,delta=1
    41                           	psect	text25,global,reloc=2,class=CODE,delta=1
    42                           	psect	text26,global,reloc=2,class=CODE,delta=1
    43                           	psect	text27,global,reloc=2,class=CODE,delta=1
    44                           	psect	text28,global,reloc=2,class=CODE,delta=1
    45                           	psect	text29,global,reloc=2,class=CODE,delta=1
    46                           	psect	intsave_regs,global,class=BIGRAM,space=1,delta=1,noexec
    47                           	psect	rparam,global,class=COMRAM,space=1,delta=1,noexec
    48                           	psect	temp,global,ovrld,common,class=COMRAM,space=1,delta=1
    49  0000                     
    50                           ; Version 1.41
    51                           ; Generated 25/01/2017 GMT
    52                           ; 
    53                           ; Copyright © 2017, Microchip Technology Inc. and its subsidiaries ("Microchip")
    54                           ; All rights reserved.
    55                           ; 
    56                           ; This software is developed by Microchip Technology Inc. and its subsidiaries ("Microch
      +                          ip").
    57                           ; 
    58                           ; Redistribution and use in source and binary forms, with or without modification, are
    59                           ; permitted provided that the following conditions are met:
    60                           ; 
    61                           ;     1. Redistributions of source code must retain the above copyright notice, this lis
      +                          t of
    62                           ;        conditions and the following disclaimer.
    63                           ; 
    64                           ;     2. Redistributions in binary form must reproduce the above copyright notice, this 
      +                          list
    65                           ;        of conditions and the following disclaimer in the documentation and/or other
    66                           ;        materials provided with the distribution.
    67                           ; 
    68                           ;     3. Microchip's name may not be used to endorse or promote products derived from th
      +                          is
    69                           ;        software without specific prior written permission.
    70                           ; 
    71                           ; THIS SOFTWARE IS PROVIDED BY MICROCHIP "AS IS" AND ANY EXPRESS OR IMPLIED WARRANTIES,
    72                           ; INCLUDING, BUT NOT LIMITED TO, THE IMPLIED WARRANTIES OF MERCHANTABILITY AND FITNESS F
      +                          OR
    73                           ; PURPOSE ARE DISCLAIMED.  IN NO EVENT SHALL MICROCHIP BE LIABLE FOR ANY DIRECT, INDIREC
      +                          T,
    74                           ; INCIDENTAL, SPECIAL, EXEMPLARY, OR CONSEQUENTIAL DAMAGES (INCLUDING BUT NOT LIMITED TO
    75                           ; PROCUREMENT OF SUBSTITUTE GOODS OR SERVICES; LOSS OF USE, DATA OR PROFITS; OR BUSINESS
    76                           ; INTERRUPTION) HOWSOEVER CAUSED AND ON ANY THEORY OF LIABILITY, WHETHER IN CONTRACT, ST
      +                          RICT
    77                           ; LIABILITY, OR TORT (INCLUDING NEGLIGENCE OR OTHERWISE) ARISING IN ANY WAY OUT OF THE U
      +                          SE OF
    78                           ; THIS SOFTWARE, EVEN IF ADVISED OF THE POSSIBILITY OF SUCH DAMAGE.
    79                           ; 
    80                           ; 
    81                           ; Code-generator required, PIC18F4550 Definitions
    82                           ; 
    83                           ; SFR Addresses
    84  0000                     
    85                           	psect	idataBANK0
    86  001A6C                     __pidataBANK0:
    87                           	opt stack 0
    88                           
    89                           ;initializer for btnAtira@F4910
    90  001A6C  D5                 	db	213
    91  001A6D  D6                 	db	214
    92  001A6E  D7                 	db	215
    93  001A6F  D8                 	db	216
    94  001A70  D9                 	db	217
    95  001A71  DA                 	db	218
    96  001A72  DB                 	db	219
    97  001A73  DC                 	db	220
    98  001A74  DD                 	db	221
    99  001A75  DE                 	db	222
   100  001A76  DF                 	db	223
   101  001A77  E0                 	db	224
   102  001A78  E1                 	db	225
   103  001A79  E2                 	db	226
   104  001A7A  E3                 	db	227
   105                           
   106                           ;initializer for btnAtira@F4908
   107  001A7B  95                 	db	149
   108  001A7C  96                 	db	150
   109  001A7D  97                 	db	151
   110  001A7E  98                 	db	152
   111  001A7F  99                 	db	153
   112  001A80  9A                 	db	154
   113  001A81  9B                 	db	155
   114  001A82  9C                 	db	156
   115  001A83  9D                 	db	157
   116  001A84  9E                 	db	158
   117  001A85  9F                 	db	159
   118  001A86  A0                 	db	160
   119  001A87  A1                 	db	161
   120  001A88  A2                 	db	162
   121  001A89  A3                 	db	163
   122                           
   123                           ;initializer for btnAtira@F4906
   124  001A8A  C1                 	db	193
   125  001A8B  C2                 	db	194
   126  001A8C  C3                 	db	195
   127  001A8D  C4                 	db	196
   128  001A8E  C5                 	db	197
   129  001A8F  C6                 	db	198
   130  001A90  C7                 	db	199
   131  001A91  C8                 	db	200
   132  001A92  C9                 	db	201
   133  001A93  CA                 	db	202
   134  001A94  CB                 	db	203
   135  001A95  CC                 	db	204
   136  001A96  CD                 	db	205
   137  001A97  CE                 	db	206
   138  001A98  CF                 	db	207
   139                           
   140                           ;initializer for btnAtira@F4904
   141  001A99  81                 	db	129
   142  001A9A  82                 	db	130
   143  001A9B  83                 	db	131
   144  001A9C  84                 	db	132
   145  001A9D  85                 	db	133
   146  001A9E  86                 	db	134
   147  001A9F  87                 	db	135
   148  001AA0  88                 	db	136
   149  001AA1  89                 	db	137
   150  001AA2  8A                 	db	138
   151  001AA3  8B                 	db	139
   152  001AA4  8C                 	db	140
   153  001AA5  8D                 	db	141
   154  001AA6  8E                 	db	142
   155  001AA7  8F                 	db	143
   156                           
   157                           ;initializer for controi_tank@F4902
   158  001AA8  80                 	db	128
   159  001AA9  C0                 	db	192
   160  001AAA  94                 	db	148
   161  001AAB  D4                 	db	212
   162                           
   163                           	psect	idataBANK1
   164  001AEA                     __pidataBANK1:
   165                           	opt stack 0
   166                           
   167                           ;initializer for obstaculo@F4922
   168  001AEA  D5                 	db	213
   169  001AEB  D6                 	db	214
   170  001AEC  D7                 	db	215
   171  001AED  D8                 	db	216
   172  001AEE  D9                 	db	217
   173  001AEF  DA                 	db	218
   174  001AF0  DB                 	db	219
   175  001AF1  DC                 	db	220
   176  001AF2  DD                 	db	221
   177  001AF3  DE                 	db	222
   178  001AF4  DF                 	db	223
   179  001AF5  E0                 	db	224
   180  001AF6  E1                 	db	225
   181  001AF7  E2                 	db	226
   182  001AF8  E3                 	db	227
   183                           
   184                           ;initializer for obstaculo@F4920
   185  001AF9  95                 	db	149
   186  001AFA  96                 	db	150
   187  001AFB  97                 	db	151
   188  001AFC  98                 	db	152
   189  001AFD  99                 	db	153
   190  001AFE  9A                 	db	154
   191  001AFF  9B                 	db	155
   192  001B00  9C                 	db	156
   193  001B01  9D                 	db	157
   194  001B02  9E                 	db	158
   195  001B03  9F                 	db	159
   196  001B04  A0                 	db	160
   197  001B05  A1                 	db	161
   198  001B06  A2                 	db	162
   199  001B07  A3                 	db	163
   200                           
   201                           ;initializer for obstaculo@F4918
   202  001B08  C1                 	db	193
   203  001B09  C2                 	db	194
   204  001B0A  C3                 	db	195
   205  001B0B  C4                 	db	196
   206  001B0C  C5                 	db	197
   207  001B0D  C6                 	db	198
   208  001B0E  C7                 	db	199
   209  001B0F  C8                 	db	200
   210  001B10  C9                 	db	201
   211  001B11  CA                 	db	202
   212  001B12  CB                 	db	203
   213  001B13  CC                 	db	204
   214  001B14  CD                 	db	205
   215  001B15  CE                 	db	206
   216  001B16  CF                 	db	207
   217                           
   218                           ;initializer for obstaculo@F4916
   219  001B17  81                 	db	129
   220  001B18  82                 	db	130
   221  001B19  83                 	db	131
   222  001B1A  84                 	db	132
   223  001B1B  85                 	db	133
   224  001B1C  86                 	db	134
   225  001B1D  87                 	db	135
   226  001B1E  88                 	db	136
   227  001B1F  89                 	db	137
   228  001B20  8A                 	db	138
   229  001B21  8B                 	db	139
   230  001B22  8C                 	db	140
   231  001B23  8D                 	db	141
   232  001B24  8E                 	db	142
   233  001B25  8F                 	db	143
   234  0000                     _TMR0	set	4054
   235  0000                     _TRISBbits	set	3987
   236  0000                     _TRISB	set	3987
   237  0000                     _PORTB	set	3969
   238  0000                     _LATBbits	set	3978
   239  0000                     _T0CONbits	set	4053
   240  0000                     _TRISCbits	set	3988
   241  0000                     _TXSTA	set	4012
   242  0000                     _RCSTA	set	4011
   243  0000                     _SPBRG	set	4015
   244  0000                     _INTCONbits	set	4082
   245  0000                     _PORTDbits	set	3971
   246  0000                     _PEIE	set	32662
   247  0000                     _RCIE	set	31981
   248  0000                     _RCIP	set	31997
   249  0000                     _RCIF	set	31989
   250  0000                     _TMR0IF	set	32658
   251                           
   252                           	psect	smallconst
   253  000800                     __psmallconst:
   254                           	opt stack 0
   255  000800  00                 	db	0
   256  000801                     
   257                           ; BSR set to: 0
   258  000801  53                 	db	83	;'S'
   259  000802  68                 	db	104	;'h'
   260  000803  6F                 	db	111	;'o'
   261  000804  54                 	db	84	;'T'
   262  000805  00                 	db	0
   263  000806                     STR_1:
   264                           
   265                           ; BSR set to: 0
   266  000806  20                 	db	32
   267  000807  00                 	db	0
   268  000808                     STR_46:
   269                           
   270                           ; BSR set to: 0
   271  000808  2D                 	db	45
   272  000809  00                 	db	0
   273  00080A                     STR_5:
   274                           
   275                           ; BSR set to: 0
   276  00080A  44                 	db	68	;'D'
   277  00080B  00                 	db	0
   278  00080C                     STR_62:
   279                           
   280                           ; BSR set to: 0
   281  00080C  58                 	db	88	;'X'
   282  00080D  00                 	db	0
   283  0000                     
   284                           ; #config settings
   285  00080E  00                 	db	0	; dummy byte at the end
   286  0000                     
   287                           	psect	cinit
   288  001934                     __pcinit:
   289                           	opt stack 0
   290  001934                     start_initialization:
   291                           	opt stack 0
   292  001934                     __initialization:
   293                           	opt stack 0
   294                           
   295                           ; Initialize objects allocated to BANK1 (60 bytes)
   296                           ; load TBLPTR registers with __pidataBANK1
   297  001934  0EEA               	movlw	low __pidataBANK1
   298  001936  6EF6               	movwf	tblptrl,c
   299  001938  0E1A               	movlw	high __pidataBANK1
   300  00193A  6EF7               	movwf	tblptrh,c
   301  00193C  0E00               	movlw	low (__pidataBANK1 shr (0+16))
   302  00193E  6EF8               	movwf	tblptru,c
   303  001940  EE01  F000         	lfsr	0,__pdataBANK1
   304  001944  EE10 F03C          	lfsr	1,60
   305  001948                     copy_data0:
   306  001948  0009               	tblrd		*+
   307  00194A  CFF5 FFEE          	movff	tablat,postinc0
   308  00194E  50E5               	movf	postdec1,w,c
   309  001950  50E1               	movf	fsr1l,w,c
   310  001952  E1FA               	bnz	copy_data0
   311                           
   312                           ; Initialize objects allocated to BANK0 (64 bytes)
   313                           ; load TBLPTR registers with __pidataBANK0
   314  001954  0E6C               	movlw	low __pidataBANK0
   315  001956  6EF6               	movwf	tblptrl,c
   316  001958  0E1A               	movlw	high __pidataBANK0
   317  00195A  6EF7               	movwf	tblptrh,c
   318  00195C  0E00               	movlw	low (__pidataBANK0 shr (0+16))
   319  00195E  6EF8               	movwf	tblptru,c
   320  001960  EE00  F0AD         	lfsr	0,__pdataBANK0
   321  001964  EE10 F040          	lfsr	1,64
   322  001968                     copy_data1:
   323  001968  0009               	tblrd		*+
   324  00196A  CFF5 FFEE          	movff	tablat,postinc0
   325  00196E  50E5               	movf	postdec1,w,c
   326  001970  50E1               	movf	fsr1l,w,c
   327  001972  E1FA               	bnz	copy_data1
   328                           
   329                           ; Clear objects allocated to BANK0 (12 bytes)
   330  001974  EE00  F0ED         	lfsr	0,__pbssBANK0
   331  001978  0E0C               	movlw	12
   332  00197A                     clear_0:
   333  00197A  6AEE               	clrf	postinc0,c
   334  00197C  06E8               	decf	wreg,f,c
   335  00197E  E1FD               	bnz	clear_0
   336                           
   337                           ; Clear objects allocated to COMRAM (2 bytes)
   338  001980  6A5D               	clrf	(__pbssCOMRAM+1)& (0+255),c
   339  001982  6A5C               	clrf	__pbssCOMRAM& (0+255),c
   340  001984                     end_of_initialization:
   341                           	opt stack 0
   342  001984                     __end_of__initialization:
   343                           	opt stack 0
   344  001984  905E               	bcf	int$flags,0,c	;clear compiler interrupt flag (level 1)
   345  001986  925E               	bcf	int$flags,1,c	;clear compiler interrupt flag (level 2)
   346  001988  0E00               	movlw	low (__Lmediumconst shr (0+16))
   347  00198A  6EF8               	movwf	tblptru,c
   348  00198C  0100               	movlb	0
   349  00198E  EF1F  F00E         	goto	_main	;jump to C main() function
   350                           tblptru	equ	0xFF8
   351                           tblptrh	equ	0xFF7
   352                           tblptrl	equ	0xFF6
   353                           tablat	equ	0xFF5
   354                           postinc0	equ	0xFEE
   355                           wreg	equ	0xFE8
   356                           postdec1	equ	0xFE5
   357                           fsr1l	equ	0xFE1
   358                           
   359                           	psect	bssCOMRAM
   360  00005C                     __pbssCOMRAM:
   361                           	opt stack 0
   362  00005C                     _matar:
   363                           	opt stack 0
   364  00005C                     	ds	2
   365                           tblptru	equ	0xFF8
   366                           tblptrh	equ	0xFF7
   367                           tblptrl	equ	0xFF6
   368                           tablat	equ	0xFF5
   369                           postinc0	equ	0xFEE
   370                           wreg	equ	0xFE8
   371                           postdec1	equ	0xFE5
   372                           fsr1l	equ	0xFE1
   373                           
   374                           	psect	bssBANK0
   375  0000ED                     __pbssBANK0:
   376                           	opt stack 0
   377  0000ED                     _controle:
   378                           	opt stack 0
   379  0000ED                     	ds	2
   380  0000EF                     _i:
   381                           	opt stack 0
   382  0000EF                     	ds	2
   383  0000F1                     _cont_seg:
   384                           	opt stack 0
   385  0000F1                     	ds	2
   386  0000F3                     _cont_dez:
   387                           	opt stack 0
   388  0000F3                     	ds	2
   389  0000F5                     _x:
   390                           	opt stack 0
   391  0000F5                     	ds	2
   392  0000F7                     _tela:
   393                           	opt stack 0
   394  0000F7                     	ds	2
   395                           tblptru	equ	0xFF8
   396                           tblptrh	equ	0xFF7
   397                           tblptrl	equ	0xFF6
   398                           tablat	equ	0xFF5
   399                           postinc0	equ	0xFEE
   400                           wreg	equ	0xFE8
   401                           postdec1	equ	0xFE5
   402                           fsr1l	equ	0xFE1
   403                           
   404                           	psect	dataBANK0
   405  0000AD                     __pdataBANK0:
   406                           	opt stack 0
   407  0000AD                     btnAtira@F4910:
   408                           	opt stack 0
   409  0000AD                     	ds	15
   410  0000BC                     btnAtira@F4908:
   411                           	opt stack 0
   412  0000BC                     	ds	15
   413  0000CB                     btnAtira@F4906:
   414                           	opt stack 0
   415  0000CB                     	ds	15
   416  0000DA                     btnAtira@F4904:
   417                           	opt stack 0
   418  0000DA                     	ds	15
   419  0000E9                     controi_tank@F4902:
   420                           	opt stack 0
   421  0000E9                     	ds	4
   422                           tblptru	equ	0xFF8
   423                           tblptrh	equ	0xFF7
   424                           tblptrl	equ	0xFF6
   425                           tablat	equ	0xFF5
   426                           postinc0	equ	0xFEE
   427                           wreg	equ	0xFE8
   428                           postdec1	equ	0xFE5
   429                           fsr1l	equ	0xFE1
   430                           
   431                           	psect	dataBANK1
   432  000100                     __pdataBANK1:
   433                           	opt stack 0
   434  000100                     obstaculo@F4922:
   435                           	opt stack 0
   436  000100                     	ds	15
   437  00010F                     obstaculo@F4920:
   438                           	opt stack 0
   439  00010F                     	ds	15
   440  00011E                     obstaculo@F4918:
   441                           	opt stack 0
   442  00011E                     	ds	15
   443  00012D                     obstaculo@F4916:
   444                           	opt stack 0
   445  00012D                     	ds	15
   446                           tblptru	equ	0xFF8
   447                           tblptrh	equ	0xFF7
   448                           tblptrl	equ	0xFF6
   449                           tablat	equ	0xFF5
   450                           postinc0	equ	0xFEE
   451                           wreg	equ	0xFE8
   452                           postdec1	equ	0xFE5
   453                           fsr1l	equ	0xFE1
   454                           
   455                           	psect	cstackBANK0
   456  000060                     __pcstackBANK0:
   457                           	opt stack 0
   458  000060                     ??_Delay10KTCYx:
   459  000060                     Delay10TCYx@unit:
   460                           	opt stack 0
   461  000060                     Delay1KTCYx@unit:
   462                           	opt stack 0
   463                           
   464                           ; 1 bytes @ 0x0
   465  000060                     	ds	1
   466  000061                     ??_SetDDRamAddr:
   467  000061                     WriteCmdXLCD@cmd:
   468                           	opt stack 0
   469  000061                     WriteDataXLCD@data:
   470                           	opt stack 0
   471  000061                     Delay10KTCYx@unit:
   472                           	opt stack 0
   473                           
   474                           ; 1 bytes @ 0x1
   475  000061                     	ds	1
   476  000062                     putrsXLCD@buffer:
   477                           	opt stack 0
   478                           
   479                           ; 2 bytes @ 0x2
   480  000062                     	ds	2
   481  000064                     SetDDRamAddr@DDaddr:
   482                           	opt stack 0
   483                           
   484                           ; 1 bytes @ 0x4
   485  000064                     	ds	1
   486  000065                     ??_btnAtira:
   487  000065                     OpenXLCD@lcdtype:
   488                           	opt stack 0
   489  000065                     controi_tank@pos_vet:
   490                           	opt stack 0
   491                           
   492                           ; 4 bytes @ 0x5
   493  000065                     	ds	1
   494  000066                     
   495                           ; 1 bytes @ 0x6
   496  000066                     	ds	3
   497  000069                     btnAtira@pos_linha0:
   498                           	opt stack 0
   499                           
   500                           ; 15 bytes @ 0x9
   501  000069                     	ds	15
   502  000078                     btnAtira@pos_linha1:
   503                           	opt stack 0
   504                           
   505                           ; 15 bytes @ 0x18
   506  000078                     	ds	15
   507  000087                     btnAtira@pos_linha2:
   508                           	opt stack 0
   509                           
   510                           ; 15 bytes @ 0x27
   511  000087                     	ds	15
   512  000096                     btnAtira@pos_linha3:
   513                           	opt stack 0
   514                           
   515                           ; 15 bytes @ 0x36
   516  000096                     	ds	15
   517  0000A5                     btnAtira@coluna0:
   518                           	opt stack 0
   519                           
   520                           ; 2 bytes @ 0x45
   521  0000A5                     	ds	2
   522  0000A7                     btnAtira@coluna1:
   523                           	opt stack 0
   524                           
   525                           ; 2 bytes @ 0x47
   526  0000A7                     	ds	2
   527  0000A9                     btnAtira@coluna2:
   528                           	opt stack 0
   529                           
   530                           ; 2 bytes @ 0x49
   531  0000A9                     	ds	2
   532  0000AB                     btnAtira@coluna3:
   533                           	opt stack 0
   534                           
   535                           ; 2 bytes @ 0x4B
   536  0000AB                     	ds	2
   537  0000AD                     tblptru	equ	0xFF8
   538                           tblptrh	equ	0xFF7
   539                           tblptrl	equ	0xFF6
   540                           tablat	equ	0xFF5
   541                           postinc0	equ	0xFEE
   542                           wreg	equ	0xFE8
   543                           postdec1	equ	0xFE5
   544                           fsr1l	equ	0xFE1
   545                           
   546                           ; 1 bytes @ 0x4D
   547                           
   548                           	psect	cstackCOMRAM
   549  000001                     __pcstackCOMRAM:
   550                           	opt stack 0
   551  000001                     ??i2_Delay10KTCYx:
   552  000001                     i2Delay10TCYx@unit:
   553                           	opt stack 0
   554                           
   555                           ; 1 bytes @ 0x0
   556  000001                     	ds	1
   557  000002                     ??i2_SetDDRamAddr:
   558  000002                     i2WriteDataXLCD@data:
   559                           	opt stack 0
   560  000002                     i2Delay10KTCYx@unit:
   561                           	opt stack 0
   562                           
   563                           ; 1 bytes @ 0x1
   564  000002                     	ds	1
   565  000003                     i2putrsXLCD@buffer:
   566                           	opt stack 0
   567                           
   568                           ; 2 bytes @ 0x2
   569  000003                     	ds	2
   570  000005                     i2SetDDRamAddr@DDaddr:
   571                           	opt stack 0
   572                           
   573                           ; 1 bytes @ 0x4
   574  000005                     	ds	1
   575  000006                     ??i2_btnAtira:
   576                           
   577                           ; 1 bytes @ 0x5
   578  000006                     	ds	4
   579  00000A                     i2btnAtira@pos_linha0:
   580                           	opt stack 0
   581                           
   582                           ; 15 bytes @ 0x9
   583  00000A                     	ds	15
   584  000019                     i2btnAtira@pos_linha1:
   585                           	opt stack 0
   586                           
   587                           ; 15 bytes @ 0x18
   588  000019                     	ds	15
   589  000028                     i2btnAtira@pos_linha2:
   590                           	opt stack 0
   591                           
   592                           ; 15 bytes @ 0x27
   593  000028                     	ds	15
   594  000037                     i2btnAtira@pos_linha3:
   595                           	opt stack 0
   596                           
   597                           ; 15 bytes @ 0x36
   598  000037                     	ds	15
   599  000046                     i2btnAtira@coluna0:
   600                           	opt stack 0
   601                           
   602                           ; 2 bytes @ 0x45
   603  000046                     	ds	2
   604  000048                     i2btnAtira@coluna1:
   605                           	opt stack 0
   606                           
   607                           ; 2 bytes @ 0x47
   608  000048                     	ds	2
   609  00004A                     i2btnAtira@coluna2:
   610                           	opt stack 0
   611                           
   612                           ; 2 bytes @ 0x49
   613  00004A                     	ds	2
   614  00004C                     i2btnAtira@coluna3:
   615                           	opt stack 0
   616                           
   617                           ; 2 bytes @ 0x4B
   618  00004C                     	ds	2
   619  00004E                     ??_InterruptPic:
   620                           
   621                           ; 1 bytes @ 0x4D
   622  00004E                     	ds	14
   623                           tblptru	equ	0xFF8
   624                           tblptrh	equ	0xFF7
   625                           tblptrl	equ	0xFF6
   626                           tablat	equ	0xFF5
   627                           postinc0	equ	0xFEE
   628                           wreg	equ	0xFE8
   629                           postdec1	equ	0xFE5
   630                           fsr1l	equ	0xFE1
   631                           
   632 ;;
   633 ;;Main: autosize = 0, tempsize = 0, incstack = 0, save=0
   634 ;;
   635 ;; *************** function _main *****************
   636 ;; Defined at:
   637 ;;		line 17 in file "main_teste.c"
   638 ;; Parameters:    Size  Location     Type
   639 ;;		None
   640 ;; Auto vars:     Size  Location     Type
   641 ;;		None
   642 ;; Return value:  Size  Location     Type
   643 ;;                  1    wreg      void 
   644 ;; Registers used:
   645 ;;		wreg, fsr1l, fsr1h, fsr2l, fsr2h, status,2, status,0, tblptrl, tblptrh, tblptru, cstack
   646 ;; Tracked objects:
   647 ;;		On entry : 0/0
   648 ;;		On exit  : 0/0
   649 ;;		Unchanged: 0/0
   650 ;; Data sizes:     COMRAM   BANK0   BANK1   BANK2   BANK3   BANK4   BANK5   BANK6   BANK7
   651 ;;      Params:         0       0       0       0       0       0       0       0       0
   652 ;;      Locals:         0       0       0       0       0       0       0       0       0
   653 ;;      Temps:          0       0       0       0       0       0       0       0       0
   654 ;;      Totals:         0       0       0       0       0       0       0       0       0
   655 ;;Total ram usage:        0 bytes
   656 ;; Hardware stack levels required when called:   11
   657 ;; This function calls:
   658 ;;		_btnAtira
   659 ;;		_btnDireito
   660 ;;		_btnEsquerdo
   661 ;;		_controi_tank
   662 ;;		_iniciaPic
   663 ;;		_init_XLCD
   664 ;; This function is called by:
   665 ;;		Startup code after reset
   666 ;; This function uses a non-reentrant model
   667 ;;
   668                           
   669                           	psect	text0
   670  001C3E                     __ptext0:
   671                           	opt stack 0
   672  001C3E                     _main:
   673                           	opt stack 20
   674                           
   675                           ;main_teste.c: 18: iniciaPic();
   676                           
   677                           ; BSR set to: 0
   678                           ;incstack = 0
   679  001C3E  EC93  F00D         	call	_iniciaPic	;wreg free
   680                           
   681                           ;main_teste.c: 19: init_XLCD();
   682  001C42  EC38  F00E         	call	_init_XLCD	;wreg free
   683                           
   684                           ;main_teste.c: 21: controi_tank();
   685  001C46  EC1B  F00C         	call	_controi_tank	;wreg free
   686  001C4A                     l2883:
   687                           
   688                           ;main_teste.c: 32: if (PORTDbits.RD3) {
   689  001C4A  A683               	btfss	3971,3,c	;volatile
   690  001C4C  D004               	goto	l2889
   691  001C4E                     l41:
   692  001C4E  B683               	btfsc	3971,3,c	;volatile
   693  001C50  D7FE               	goto	l41
   694                           
   695                           ;main_teste.c: 34: btnDireito();
   696  001C52  EC9E  F008         	call	_btnDireito	;wreg free
   697  001C56                     l2889:
   698                           
   699                           ;main_teste.c: 35: }
   700                           ;main_teste.c: 36: if (PORTDbits.RD1) {
   701  001C56  A283               	btfss	3971,1,c	;volatile
   702  001C58  D004               	goto	l2895
   703  001C5A                     l45:
   704  001C5A  B283               	btfsc	3971,1,c	;volatile
   705  001C5C  D7FE               	goto	l45
   706                           
   707                           ;main_teste.c: 38: btnEsquerdo();
   708  001C5E  EC96  F007         	call	_btnEsquerdo	;wreg free
   709  001C62                     l2895:
   710                           
   711                           ;main_teste.c: 39: }
   712                           ;main_teste.c: 41: if (PORTDbits.RD2) {
   713  001C62  A483               	btfss	3971,2,c	;volatile
   714  001C64  D7F2               	goto	l2883
   715  001C66                     l49:
   716  001C66  B483               	btfsc	3971,2,c	;volatile
   717  001C68  D7FE               	goto	l49
   718                           
   719                           ;main_teste.c: 43: btnAtira();
   720  001C6A  EC08  F004         	call	_btnAtira	;wreg free
   721  001C6E  D7ED               	goto	l2883
   722  001C70                     __end_of_main:
   723                           	opt stack 0
   724                           tblptru	equ	0xFF8
   725                           tblptrh	equ	0xFF7
   726                           tblptrl	equ	0xFF6
   727                           tablat	equ	0xFF5
   728                           postinc0	equ	0xFEE
   729                           wreg	equ	0xFE8
   730                           postdec1	equ	0xFE5
   731                           fsr1l	equ	0xFE1
   732                           
   733 ;; *************** function _init_XLCD *****************
   734 ;; Defined at:
   735 ;;		line 23 in file "display.c"
   736 ;; Parameters:    Size  Location     Type
   737 ;;		None
   738 ;; Auto vars:     Size  Location     Type
   739 ;;		None
   740 ;; Return value:  Size  Location     Type
   741 ;;                  1    wreg      void 
   742 ;; Registers used:
   743 ;;		wreg, status,2, status,0, cstack
   744 ;; Tracked objects:
   745 ;;		On entry : 0/0
   746 ;;		On exit  : 0/0
   747 ;;		Unchanged: 0/0
   748 ;; Data sizes:     COMRAM   BANK0   BANK1   BANK2   BANK3   BANK4   BANK5   BANK6   BANK7
   749 ;;      Params:         0       0       0       0       0       0       0       0       0
   750 ;;      Locals:         0       0       0       0       0       0       0       0       0
   751 ;;      Temps:          0       0       0       0       0       0       0       0       0
   752 ;;      Totals:         0       0       0       0       0       0       0       0       0
   753 ;;Total ram usage:        0 bytes
   754 ;; Hardware stack levels used:    1
   755 ;; Hardware stack levels required when called:   10
   756 ;; This function calls:
   757 ;;		_BusyXLCD
   758 ;;		_OpenXLCD
   759 ;;		_WriteCmdXLCD
   760 ;; This function is called by:
   761 ;;		_main
   762 ;; This function uses a non-reentrant model
   763 ;;
   764                           
   765                           	psect	text1
   766  001C70                     __ptext1:
   767                           	opt stack 0
   768  001C70                     _init_XLCD:
   769                           	opt stack 20
   770                           
   771                           ;display.c: 24: OpenXLCD(0b00101100 & 0b00111000);
   772                           
   773                           ;incstack = 0
   774  001C70  0E28               	movlw	40
   775  001C72  ECC7  F00B         	call	_OpenXLCD
   776  001C76                     l2363:
   777  001C76  ECB0  F00D         	call	_BusyXLCD	;wreg free
   778  001C7A  0900               	iorlw	0
   779  001C7C  A4D8               	btfss	status,2,c
   780  001C7E  D7FB               	goto	l2363
   781                           
   782                           ;display.c: 27: WriteCmdXLCD(0x06);
   783  001C80  0E06               	movlw	6
   784  001C82  ECF2  F00C         	call	_WriteCmdXLCD
   785                           
   786                           ;display.c: 28: WriteCmdXLCD(0x0C);
   787  001C86  0E0C               	movlw	12
   788  001C88  ECF2  F00C         	call	_WriteCmdXLCD
   789  001C8C  0012               	return		;funcret
   790  001C8E                     __end_of_init_XLCD:
   791                           	opt stack 0
   792                           tblptru	equ	0xFF8
   793                           tblptrh	equ	0xFF7
   794                           tblptrl	equ	0xFF6
   795                           tablat	equ	0xFF5
   796                           postinc0	equ	0xFEE
   797                           wreg	equ	0xFE8
   798                           postdec1	equ	0xFE5
   799                           fsr1l	equ	0xFE1
   800                           status	equ	0xFD8
   801                           
   802 ;; *************** function _OpenXLCD *****************
   803 ;; Defined at:
   804 ;;		line 19 in file "C:\Program Files (x86)\Microchip\xc8\v1.41\sources\pic18\plib\XLCD\openxlcd.c"
   805 ;; Parameters:    Size  Location     Type
   806 ;;  lcdtype         1    wreg     unsigned char 
   807 ;; Auto vars:     Size  Location     Type
   808 ;;  lcdtype         1    5[BANK0 ] unsigned char 
   809 ;; Return value:  Size  Location     Type
   810 ;;                  1    wreg      void 
   811 ;; Registers used:
   812 ;;		wreg, status,2, status,0, cstack
   813 ;; Tracked objects:
   814 ;;		On entry : 0/0
   815 ;;		On exit  : 0/0
   816 ;;		Unchanged: 0/0
   817 ;; Data sizes:     COMRAM   BANK0   BANK1   BANK2   BANK3   BANK4   BANK5   BANK6   BANK7
   818 ;;      Params:         0       0       0       0       0       0       0       0       0
   819 ;;      Locals:         0       1       0       0       0       0       0       0       0
   820 ;;      Temps:          0       0       0       0       0       0       0       0       0
   821 ;;      Totals:         0       1       0       0       0       0       0       0       0
   822 ;;Total ram usage:        1 bytes
   823 ;; Hardware stack levels used:    1
   824 ;; Hardware stack levels required when called:    9
   825 ;; This function calls:
   826 ;;		_BusyXLCD
   827 ;;		_Delay10KTCYx
   828 ;;		_DelayPORXLCD
   829 ;;		_SetDDRamAddr
   830 ;;		_WriteCmdXLCD
   831 ;; This function is called by:
   832 ;;		_init_XLCD
   833 ;; This function uses a non-reentrant model
   834 ;;
   835                           
   836                           	psect	text2
   837  00178E                     __ptext2:
   838                           	opt stack 0
   839  00178E                     _OpenXLCD:
   840                           	opt stack 20
   841                           
   842                           ;incstack = 0
   843                           ;OpenXLCD@lcdtype stored from wreg
   844  00178E  0100               	movlb	0	; () banked
   845  001790  6F65               	movwf	OpenXLCD@lcdtype& (0+255),b
   846  001792  0EF0               	movlw	240
   847  001794  1681               	andwf	3969,f,c	;volatile
   848  001796  0EF0               	movlw	240
   849  001798  1693               	andwf	3987,f,c	;volatile
   850  00179A  9C93               	bcf	3987,6,c	;volatile
   851  00179C  9A93               	bcf	3987,5,c	;volatile
   852  00179E  9893               	bcf	3987,4,c	;volatile
   853  0017A0  9C8A               	bcf	3978,6,c	;volatile
   854  0017A2  9A8A               	bcf	3978,5,c	;volatile
   855  0017A4  988A               	bcf	3978,4,c	;volatile
   856  0017A6  EC7D  F00E         	call	_DelayPORXLCD	;wreg free
   857  0017AA  0E30               	movlw	48
   858  0017AC  ECF2  F00C         	call	_WriteCmdXLCD
   859  0017B0  0E05               	movlw	5
   860  0017B2  EC47  F00E         	call	_Delay10KTCYx
   861  0017B6  0E30               	movlw	48
   862  0017B8  ECF2  F00C         	call	_WriteCmdXLCD
   863  0017BC  0E01               	movlw	1
   864  0017BE  EC47  F00E         	call	_Delay10KTCYx
   865  0017C2  0E32               	movlw	50
   866  0017C4  ECF2  F00C         	call	_WriteCmdXLCD
   867  0017C8                     l2257:
   868  0017C8  ECB0  F00D         	call	_BusyXLCD	;wreg free
   869  0017CC  0900               	iorlw	0
   870  0017CE  A4D8               	btfss	status,2,c
   871  0017D0  D7FB               	goto	l2257
   872  0017D2                     l2259:
   873  0017D2  ECB0  F00D         	call	_BusyXLCD	;wreg free
   874  0017D6  0900               	iorlw	0
   875  0017D8  A4D8               	btfss	status,2,c
   876  0017DA  D7FB               	goto	l2259
   877  0017DC  0100               	movlb	0	; () banked
   878  0017DE  5165               	movf	OpenXLCD@lcdtype& (0+255),w,b
   879  0017E0  ECF2  F00C         	call	_WriteCmdXLCD
   880  0017E4                     l2263:
   881  0017E4  ECB0  F00D         	call	_BusyXLCD	;wreg free
   882  0017E8  0900               	iorlw	0
   883  0017EA  A4D8               	btfss	status,2,c
   884  0017EC  D7FB               	goto	l2263
   885  0017EE  0E08               	movlw	8
   886  0017F0  ECF2  F00C         	call	_WriteCmdXLCD
   887  0017F4                     l2267:
   888  0017F4  ECB0  F00D         	call	_BusyXLCD	;wreg free
   889  0017F8  0900               	iorlw	0
   890  0017FA  A4D8               	btfss	status,2,c
   891  0017FC  D7FB               	goto	l2267
   892  0017FE  0E0F               	movlw	15
   893  001800  ECF2  F00C         	call	_WriteCmdXLCD
   894  001804                     l2271:
   895  001804  ECB0  F00D         	call	_BusyXLCD	;wreg free
   896  001808  0900               	iorlw	0
   897  00180A  A4D8               	btfss	status,2,c
   898  00180C  D7FB               	goto	l2271
   899  00180E  0E01               	movlw	1
   900  001810  ECF2  F00C         	call	_WriteCmdXLCD
   901  001814                     l2275:
   902  001814  ECB0  F00D         	call	_BusyXLCD	;wreg free
   903  001818  0900               	iorlw	0
   904  00181A  A4D8               	btfss	status,2,c
   905  00181C  D7FB               	goto	l2275
   906  00181E  0E04               	movlw	4
   907  001820  ECF2  F00C         	call	_WriteCmdXLCD
   908  001824                     l2279:
   909  001824  ECB0  F00D         	call	_BusyXLCD	;wreg free
   910  001828  0900               	iorlw	0
   911  00182A  A4D8               	btfss	status,2,c
   912  00182C  D7FB               	goto	l2279
   913  00182E  0E80               	movlw	128
   914  001830  EC68  F00C         	call	_SetDDRamAddr
   915  001834  0012               	return	
   916  001836                     __end_of_OpenXLCD:
   917                           	opt stack 0
   918                           tblptru	equ	0xFF8
   919                           tblptrh	equ	0xFF7
   920                           tblptrl	equ	0xFF6
   921                           tablat	equ	0xFF5
   922                           postinc0	equ	0xFEE
   923                           wreg	equ	0xFE8
   924                           postdec1	equ	0xFE5
   925                           fsr1l	equ	0xFE1
   926                           status	equ	0xFD8
   927                           
   928 ;; *************** function _WriteCmdXLCD *****************
   929 ;; Defined at:
   930 ;;		line 13 in file "C:\Program Files (x86)\Microchip\xc8\v1.41\sources\pic18\plib\XLCD\wcmdxlcd.c"
   931 ;; Parameters:    Size  Location     Type
   932 ;;  cmd             1    wreg     unsigned char 
   933 ;; Auto vars:     Size  Location     Type
   934 ;;  cmd             1    1[BANK0 ] unsigned char 
   935 ;; Return value:  Size  Location     Type
   936 ;;                  1    wreg      void 
   937 ;; Registers used:
   938 ;;		wreg, status,2, status,0, cstack
   939 ;; Tracked objects:
   940 ;;		On entry : 0/0
   941 ;;		On exit  : 0/0
   942 ;;		Unchanged: 0/0
   943 ;; Data sizes:     COMRAM   BANK0   BANK1   BANK2   BANK3   BANK4   BANK5   BANK6   BANK7
   944 ;;      Params:         0       0       0       0       0       0       0       0       0
   945 ;;      Locals:         0       1       0       0       0       0       0       0       0
   946 ;;      Temps:          0       0       0       0       0       0       0       0       0
   947 ;;      Totals:         0       1       0       0       0       0       0       0       0
   948 ;;Total ram usage:        1 bytes
   949 ;; Hardware stack levels used:    1
   950 ;; Hardware stack levels required when called:    8
   951 ;; This function calls:
   952 ;;		_DelayFor18TCY
   953 ;; This function is called by:
   954 ;;		_init_XLCD
   955 ;;		_OpenXLCD
   956 ;; This function uses a non-reentrant model
   957 ;;
   958                           
   959                           	psect	text3
   960  0019E4                     __ptext3:
   961                           	opt stack 0
   962  0019E4                     _WriteCmdXLCD:
   963                           	opt stack 21
   964                           
   965                           ;incstack = 0
   966                           ;WriteCmdXLCD@cmd stored from wreg
   967  0019E4  0100               	movlb	0	; () banked
   968  0019E6  6F61               	movwf	WriteCmdXLCD@cmd& (0+255),b
   969  0019E8  0EF0               	movlw	240
   970  0019EA  1693               	andwf	3987,f,c	;volatile
   971  0019EC  0EF0               	movlw	240
   972  0019EE  1681               	andwf	3969,f,c	;volatile
   973  0019F0  0100               	movlb	0	; () banked
   974  0019F2  3961               	swapf	WriteCmdXLCD@cmd& (0+255),w,b
   975  0019F4  0B0F               	andlw	15
   976  0019F6  0B0F               	andlw	15
   977  0019F8  1281               	iorwf	3969,f,c	;volatile
   978                           
   979                           ; BSR set to: 0
   980  0019FA  9C8A               	bcf	3978,6,c	;volatile
   981                           
   982                           ; BSR set to: 0
   983  0019FC  9A8A               	bcf	3978,5,c	;volatile
   984                           
   985                           ; BSR set to: 0
   986  0019FE  EC81  F00E         	call	_DelayFor18TCY	;wreg free
   987  001A02  888A               	bsf	3978,4,c	;volatile
   988  001A04  EC81  F00E         	call	_DelayFor18TCY	;wreg free
   989  001A08  988A               	bcf	3978,4,c	;volatile
   990  001A0A  0EF0               	movlw	240
   991  001A0C  1681               	andwf	3969,f,c	;volatile
   992  001A0E  0100               	movlb	0	; () banked
   993  001A10  5161               	movf	WriteCmdXLCD@cmd& (0+255),w,b
   994  001A12  0B0F               	andlw	15
   995  001A14  1281               	iorwf	3969,f,c	;volatile
   996                           
   997                           ; BSR set to: 0
   998  001A16  EC81  F00E         	call	_DelayFor18TCY	;wreg free
   999  001A1A  888A               	bsf	3978,4,c	;volatile
  1000  001A1C  EC81  F00E         	call	_DelayFor18TCY	;wreg free
  1001  001A20  988A               	bcf	3978,4,c	;volatile
  1002  001A22  0E0F               	movlw	15
  1003  001A24  1293               	iorwf	3987,f,c	;volatile
  1004  001A26  0012               	return	
  1005  001A28                     __end_of_WriteCmdXLCD:
  1006                           	opt stack 0
  1007                           tblptru	equ	0xFF8
  1008                           tblptrh	equ	0xFF7
  1009                           tblptrl	equ	0xFF6
  1010                           tablat	equ	0xFF5
  1011                           postinc0	equ	0xFEE
  1012                           wreg	equ	0xFE8
  1013                           postdec1	equ	0xFE5
  1014                           fsr1l	equ	0xFE1
  1015                           status	equ	0xFD8
  1016                           
  1017 ;; *************** function _DelayPORXLCD *****************
  1018 ;; Defined at:
  1019 ;;		line 13 in file "display.c"
  1020 ;; Parameters:    Size  Location     Type
  1021 ;;		None
  1022 ;; Auto vars:     Size  Location     Type
  1023 ;;		None
  1024 ;; Return value:  Size  Location     Type
  1025 ;;                  1    wreg      void 
  1026 ;; Registers used:
  1027 ;;		wreg, cstack
  1028 ;; Tracked objects:
  1029 ;;		On entry : 0/0
  1030 ;;		On exit  : 0/0
  1031 ;;		Unchanged: 0/0
  1032 ;; Data sizes:     COMRAM   BANK0   BANK1   BANK2   BANK3   BANK4   BANK5   BANK6   BANK7
  1033 ;;      Params:         0       0       0       0       0       0       0       0       0
  1034 ;;      Locals:         0       0       0       0       0       0       0       0       0
  1035 ;;      Temps:          0       0       0       0       0       0       0       0       0
  1036 ;;      Totals:         0       0       0       0       0       0       0       0       0
  1037 ;;Total ram usage:        0 bytes
  1038 ;; Hardware stack levels used:    1
  1039 ;; Hardware stack levels required when called:    7
  1040 ;; This function calls:
  1041 ;;		_Delay1KTCYx
  1042 ;; This function is called by:
  1043 ;;		_OpenXLCD
  1044 ;; This function uses a non-reentrant model
  1045 ;;
  1046                           
  1047                           	psect	text4
  1048  001CFA                     __ptext4:
  1049                           	opt stack 0
  1050  001CFA                     _DelayPORXLCD:
  1051                           	opt stack 21
  1052                           
  1053                           ;display.c: 14: Delay1KTCYx(180);
  1054                           
  1055                           ;incstack = 0
  1056  001CFA  0EB4               	movlw	180
  1057  001CFC  EC61  F00E         	call	_Delay1KTCYx
  1058  001D00  0012               	return	
  1059  001D02                     __end_of_DelayPORXLCD:
  1060                           	opt stack 0
  1061                           tblptru	equ	0xFF8
  1062                           tblptrh	equ	0xFF7
  1063                           tblptrl	equ	0xFF6
  1064                           tablat	equ	0xFF5
  1065                           postinc0	equ	0xFEE
  1066                           wreg	equ	0xFE8
  1067                           postdec1	equ	0xFE5
  1068                           fsr1l	equ	0xFE1
  1069                           status	equ	0xFD8
  1070                           
  1071 ;; *************** function _Delay1KTCYx *****************
  1072 ;; Defined at:
  1073 ;;		line 8 in file "C:\Program Files (x86)\Microchip\xc8\v1.41\sources\pic18\d1ktcyx.c"
  1074 ;; Parameters:    Size  Location     Type
  1075 ;;  unit            1    wreg     unsigned char 
  1076 ;; Auto vars:     Size  Location     Type
  1077 ;;  unit            1    0[BANK0 ] unsigned char 
  1078 ;; Return value:  Size  Location     Type
  1079 ;;                  1    wreg      void 
  1080 ;; Registers used:
  1081 ;;		wreg
  1082 ;; Tracked objects:
  1083 ;;		On entry : 0/0
  1084 ;;		On exit  : 0/0
  1085 ;;		Unchanged: 0/0
  1086 ;; Data sizes:     COMRAM   BANK0   BANK1   BANK2   BANK3   BANK4   BANK5   BANK6   BANK7
  1087 ;;      Params:         0       0       0       0       0       0       0       0       0
  1088 ;;      Locals:         0       1       0       0       0       0       0       0       0
  1089 ;;      Temps:          0       0       0       0       0       0       0       0       0
  1090 ;;      Totals:         0       1       0       0       0       0       0       0       0
  1091 ;;Total ram usage:        1 bytes
  1092 ;; Hardware stack levels used:    1
  1093 ;; Hardware stack levels required when called:    6
  1094 ;; This function calls:
  1095 ;;		Nothing
  1096 ;; This function is called by:
  1097 ;;		_DelayPORXLCD
  1098 ;;		_DelayXLCD
  1099 ;; This function uses a non-reentrant model
  1100 ;;
  1101                           
  1102                           	psect	text5
  1103  001CC2                     __ptext5:
  1104                           	opt stack 0
  1105  001CC2                     _Delay1KTCYx:
  1106                           	opt stack 21
  1107                           
  1108                           ;incstack = 0
  1109                           ;Delay1KTCYx@unit stored from wreg
  1110  001CC2  0100               	movlb	0	; () banked
  1111  001CC4  6F60               	movwf	Delay1KTCYx@unit& (0+255),b
  1112  001CC6  0EC8               	movlw	200
  1113  001CC8                     u1797:
  1114  001CC8  D000               	nop2	
  1115  001CCA  2EE8               	decfsz	wreg,f,c
  1116  001CCC  D7FD               	bra	u1797
  1117  001CCE  0100               	movlb	0	; () banked
  1118  001CD0  2F60               	decfsz	Delay1KTCYx@unit& (0+255),f,b
  1119  001CD2  D7F9               	goto	l2039
  1120  001CD4  0012               	return	
  1121  001CD6                     __end_of_Delay1KTCYx:
  1122                           	opt stack 0
  1123                           tblptru	equ	0xFF8
  1124                           tblptrh	equ	0xFF7
  1125                           tblptrl	equ	0xFF6
  1126                           tablat	equ	0xFF5
  1127                           postinc0	equ	0xFEE
  1128                           wreg	equ	0xFE8
  1129                           postdec1	equ	0xFE5
  1130                           fsr1l	equ	0xFE1
  1131                           status	equ	0xFD8
  1132                           
  1133 ;; *************** function _iniciaPic *****************
  1134 ;; Defined at:
  1135 ;;		line 18 in file "comandos.c"
  1136 ;; Parameters:    Size  Location     Type
  1137 ;;		None
  1138 ;; Auto vars:     Size  Location     Type
  1139 ;;		None
  1140 ;; Return value:  Size  Location     Type
  1141 ;;                  1    wreg      void 
  1142 ;; Registers used:
  1143 ;;		wreg, status,2
  1144 ;; Tracked objects:
  1145 ;;		On entry : 0/0
  1146 ;;		On exit  : 0/0
  1147 ;;		Unchanged: 0/0
  1148 ;; Data sizes:     COMRAM   BANK0   BANK1   BANK2   BANK3   BANK4   BANK5   BANK6   BANK7
  1149 ;;      Params:         0       0       0       0       0       0       0       0       0
  1150 ;;      Locals:         0       0       0       0       0       0       0       0       0
  1151 ;;      Temps:          0       0       0       0       0       0       0       0       0
  1152 ;;      Totals:         0       0       0       0       0       0       0       0       0
  1153 ;;Total ram usage:        0 bytes
  1154 ;; Hardware stack levels used:    1
  1155 ;; Hardware stack levels required when called:    6
  1156 ;; This function calls:
  1157 ;;		Nothing
  1158 ;; This function is called by:
  1159 ;;		_main
  1160 ;; This function uses a non-reentrant model
  1161 ;;
  1162                           
  1163                           	psect	text6
  1164  001B26                     __ptext6:
  1165                           	opt stack 0
  1166  001B26                     _iniciaPic:
  1167                           	opt stack 24
  1168                           
  1169                           ;comandos.c: 19: SPBRG = (((20000000/64)/19200)-1);
  1170                           
  1171                           ; BSR set to: 0
  1172                           ;incstack = 0
  1173  001B26  0E0F               	movlw	15
  1174  001B28  6EAF               	movwf	4015,c	;volatile
  1175                           
  1176                           ;comandos.c: 21: RCSTA = 0b10010000;
  1177  001B2A  0E90               	movlw	144
  1178  001B2C  6EAB               	movwf	4011,c	;volatile
  1179                           
  1180                           ;comandos.c: 22: TXSTA = 0b00100000;
  1181  001B2E  0E20               	movlw	32
  1182  001B30  6EAC               	movwf	4012,c	;volatile
  1183                           
  1184                           ;comandos.c: 23: TRISCbits.RC6 = 0;
  1185  001B32  9C94               	bcf	3988,6,c	;volatile
  1186                           
  1187                           ;comandos.c: 24: TRISCbits.RC7 = 1;
  1188  001B34  8E94               	bsf	3988,7,c	;volatile
  1189                           
  1190                           ;comandos.c: 27: RCIF = 0;
  1191  001B36  9A9E               	bcf	3998,5,c	;volatile
  1192                           
  1193                           ;comandos.c: 28: RCIP = 0;
  1194  001B38  9A9F               	bcf	3999,5,c	;volatile
  1195                           
  1196                           ;comandos.c: 29: RCIE = 1;
  1197  001B3A  8A9D               	bsf	3997,5,c	;volatile
  1198                           
  1199                           ;comandos.c: 30: PEIE = 1;
  1200  001B3C  8CF2               	bsf	intcon,6,c	;volatile
  1201                           
  1202                           ;comandos.c: 32: T0CONbits.TMR0ON = 0;
  1203  001B3E  9ED5               	bcf	4053,7,c	;volatile
  1204                           
  1205                           ;comandos.c: 33: INTCONbits.TMR0IE = 1;
  1206  001B40  8AF2               	bsf	intcon,5,c	;volatile
  1207                           
  1208                           ;comandos.c: 34: INTCONbits.TMR0IF = 0;
  1209  001B42  94F2               	bcf	intcon,2,c	;volatile
  1210                           
  1211                           ;comandos.c: 35: T0CONbits.T08BIT = 0;
  1212  001B44  9CD5               	bcf	4053,6,c	;volatile
  1213                           
  1214                           ;comandos.c: 36: T0CONbits.PSA = 0;
  1215  001B46  96D5               	bcf	4053,3,c	;volatile
  1216                           
  1217                           ;comandos.c: 37: T0CONbits.T0PS0 = 0;
  1218  001B48  90D5               	bcf	4053,0,c	;volatile
  1219                           
  1220                           ;comandos.c: 38: T0CONbits.T0PS1 = 0;
  1221  001B4A  92D5               	bcf	4053,1,c	;volatile
  1222                           
  1223                           ;comandos.c: 39: T0CONbits.T0PS2 = 1;
  1224  001B4C  84D5               	bsf	4053,2,c	;volatile
  1225                           
  1226                           ;comandos.c: 40: T0CONbits.T0CS = 0;
  1227  001B4E  9AD5               	bcf	4053,5,c	;volatile
  1228                           
  1229                           ;comandos.c: 41: TMR0 = 46005;
  1230  001B50  0EB3               	movlw	179
  1231  001B52  6ED7               	movwf	4055,c	;volatile
  1232  001B54  0EB5               	movlw	181
  1233  001B56  6ED6               	movwf	4054,c	;volatile
  1234                           
  1235                           ;comandos.c: 42: T0CONbits.TMR0ON = 1;
  1236  001B58  8ED5               	bsf	4053,7,c	;volatile
  1237                           
  1238                           ;comandos.c: 43: INTCONbits.GIEH = 1;
  1239  001B5A  8EF2               	bsf	intcon,7,c	;volatile
  1240                           
  1241                           ;comandos.c: 44: INTCONbits.GIEL = 1;
  1242  001B5C  8CF2               	bsf	intcon,6,c	;volatile
  1243  001B5E  0012               	return		;funcret
  1244  001B60                     __end_of_iniciaPic:
  1245                           	opt stack 0
  1246                           tblptru	equ	0xFF8
  1247                           tblptrh	equ	0xFF7
  1248                           tblptrl	equ	0xFF6
  1249                           tablat	equ	0xFF5
  1250                           intcon	equ	0xFF2
  1251                           postinc0	equ	0xFEE
  1252                           wreg	equ	0xFE8
  1253                           postdec1	equ	0xFE5
  1254                           fsr1l	equ	0xFE1
  1255                           status	equ	0xFD8
  1256                           
  1257 ;; *************** function _controi_tank *****************
  1258 ;; Defined at:
  1259 ;;		line 75 in file "comandos.c"
  1260 ;; Parameters:    Size  Location     Type
  1261 ;;		None
  1262 ;; Auto vars:     Size  Location     Type
  1263 ;;  pos_vet         4    5[BANK0 ] unsigned char [4]
  1264 ;; Return value:  Size  Location     Type
  1265 ;;                  1    wreg      void 
  1266 ;; Registers used:
  1267 ;;		wreg, fsr2l, fsr2h, status,2, status,0, tblptrl, tblptrh, tblptru, cstack
  1268 ;; Tracked objects:
  1269 ;;		On entry : 0/0
  1270 ;;		On exit  : 0/0
  1271 ;;		Unchanged: 0/0
  1272 ;; Data sizes:     COMRAM   BANK0   BANK1   BANK2   BANK3   BANK4   BANK5   BANK6   BANK7
  1273 ;;      Params:         0       0       0       0       0       0       0       0       0
  1274 ;;      Locals:         0       4       0       0       0       0       0       0       0
  1275 ;;      Temps:          0       0       0       0       0       0       0       0       0
  1276 ;;      Totals:         0       4       0       0       0       0       0       0       0
  1277 ;;Total ram usage:        4 bytes
  1278 ;; Hardware stack levels used:    1
  1279 ;; Hardware stack levels required when called:   10
  1280 ;; This function calls:
  1281 ;;		_SetDDRamAddr
  1282 ;;		_putrsXLCD
  1283 ;; This function is called by:
  1284 ;;		_main
  1285 ;; This function uses a non-reentrant model
  1286 ;;
  1287                           
  1288                           	psect	text7
  1289  001836                     __ptext7:
  1290                           	opt stack 0
  1291  001836                     _controi_tank:
  1292                           	opt stack 20
  1293                           
  1294                           ;comandos.c: 76: char pos_vet[] = {0x80, 0xC0, 0x94, 0xD4};
  1295                           
  1296                           ;incstack = 0
  1297  001836  C0E9  F065         	movff	controi_tank@F4902,controi_tank@pos_vet
  1298  00183A  C0EA  F066         	movff	controi_tank@F4902+1,controi_tank@pos_vet+1
  1299  00183E  C0EB  F067         	movff	controi_tank@F4902+2,controi_tank@pos_vet+2
  1300  001842  C0EC  F068         	movff	controi_tank@F4902+3,controi_tank@pos_vet+3
  1301                           
  1302                           ;comandos.c: 77: i = 0;
  1303  001846  0E00               	movlw	0
  1304  001848  0100               	movlb	0	; () banked
  1305  00184A  6FF0               	movwf	(_i+1)& (0+255),b
  1306  00184C  0E00               	movlw	0
  1307  00184E  6FEF               	movwf	_i& (0+255),b
  1308                           
  1309                           ; BSR set to: 0
  1310                           ;comandos.c: 79: SetDDRamAddr(0x80);
  1311  001850  0E80               	movlw	128
  1312  001852  EC68  F00C         	call	_SetDDRamAddr
  1313                           
  1314                           ;comandos.c: 80: putrsXLCD(" ");
  1315  001856  0E06               	movlw	low STR_1
  1316  001858  0100               	movlb	0	; () banked
  1317  00185A  6F62               	movwf	putrsXLCD@buffer& (0+255),b
  1318  00185C  0E08               	movlw	high STR_1
  1319  00185E  0100               	movlb	0	; () banked
  1320  001860  6F63               	movwf	(putrsXLCD@buffer+1)& (0+255),b
  1321  001862  ECEA  F00D         	call	_putrsXLCD	;wreg free
  1322                           
  1323                           ;comandos.c: 81: SetDDRamAddr(0xC0);
  1324  001866  0EC0               	movlw	192
  1325  001868  EC68  F00C         	call	_SetDDRamAddr
  1326                           
  1327                           ;comandos.c: 82: putrsXLCD(" ");
  1328  00186C  0E06               	movlw	low STR_1
  1329  00186E  0100               	movlb	0	; () banked
  1330  001870  6F62               	movwf	putrsXLCD@buffer& (0+255),b
  1331  001872  0E08               	movlw	high STR_1
  1332  001874  0100               	movlb	0	; () banked
  1333  001876  6F63               	movwf	(putrsXLCD@buffer+1)& (0+255),b
  1334  001878  ECEA  F00D         	call	_putrsXLCD	;wreg free
  1335                           
  1336                           ;comandos.c: 83: SetDDRamAddr(0x94);
  1337  00187C  0E94               	movlw	148
  1338  00187E  EC68  F00C         	call	_SetDDRamAddr
  1339                           
  1340                           ;comandos.c: 84: putrsXLCD(" ");
  1341  001882  0E06               	movlw	low STR_1
  1342  001884  0100               	movlb	0	; () banked
  1343  001886  6F62               	movwf	putrsXLCD@buffer& (0+255),b
  1344  001888  0E08               	movlw	high STR_1
  1345  00188A  0100               	movlb	0	; () banked
  1346  00188C  6F63               	movwf	(putrsXLCD@buffer+1)& (0+255),b
  1347  00188E  ECEA  F00D         	call	_putrsXLCD	;wreg free
  1348                           
  1349                           ;comandos.c: 85: SetDDRamAddr(0xD4);
  1350  001892  0ED4               	movlw	212
  1351  001894  EC68  F00C         	call	_SetDDRamAddr
  1352                           
  1353                           ;comandos.c: 86: putrsXLCD(" ");
  1354  001898  0E06               	movlw	low STR_1
  1355  00189A  0100               	movlb	0	; () banked
  1356  00189C  6F62               	movwf	putrsXLCD@buffer& (0+255),b
  1357  00189E  0E08               	movlw	high STR_1
  1358  0018A0  0100               	movlb	0	; () banked
  1359  0018A2  6F63               	movwf	(putrsXLCD@buffer+1)& (0+255),b
  1360  0018A4  ECEA  F00D         	call	_putrsXLCD	;wreg free
  1361                           
  1362                           ;comandos.c: 87: SetDDRamAddr(pos_vet[i]);
  1363  0018A8  0E65               	movlw	low controi_tank@pos_vet
  1364  0018AA  0100               	movlb	0	; () banked
  1365  0018AC  25EF               	addwf	_i& (0+255),w,b
  1366  0018AE  6ED9               	movwf	fsr2l,c
  1367  0018B0  0E00               	movlw	high controi_tank@pos_vet
  1368  0018B2  0100               	movlb	0	; () banked
  1369  0018B4  21F0               	addwfc	(_i+1)& (0+255),w,b
  1370  0018B6  6EDA               	movwf	fsr2h,c
  1371  0018B8  50DF               	movf	indf2,w,c
  1372  0018BA  EC68  F00C         	call	_SetDDRamAddr
  1373                           
  1374                           ;comandos.c: 88: putrsXLCD("D");
  1375  0018BE  0E0A               	movlw	low STR_5
  1376  0018C0  0100               	movlb	0	; () banked
  1377  0018C2  6F62               	movwf	putrsXLCD@buffer& (0+255),b
  1378  0018C4  0E08               	movlw	high STR_5
  1379  0018C6  0100               	movlb	0	; () banked
  1380  0018C8  6F63               	movwf	(putrsXLCD@buffer+1)& (0+255),b
  1381  0018CA  ECEA  F00D         	call	_putrsXLCD	;wreg free
  1382  0018CE  0012               	return		;funcret
  1383  0018D0                     __end_of_controi_tank:
  1384                           	opt stack 0
  1385                           tblptru	equ	0xFF8
  1386                           tblptrh	equ	0xFF7
  1387                           tblptrl	equ	0xFF6
  1388                           tablat	equ	0xFF5
  1389                           intcon	equ	0xFF2
  1390                           postinc0	equ	0xFEE
  1391                           wreg	equ	0xFE8
  1392                           postdec1	equ	0xFE5
  1393                           fsr1l	equ	0xFE1
  1394                           indf2	equ	0xFDF
  1395                           fsr2h	equ	0xFDA
  1396                           fsr2l	equ	0xFD9
  1397                           status	equ	0xFD8
  1398                           
  1399 ;; *************** function _btnEsquerdo *****************
  1400 ;; Defined at:
  1401 ;;		line 147 in file "comandos.c"
  1402 ;; Parameters:    Size  Location     Type
  1403 ;;		None
  1404 ;; Auto vars:     Size  Location     Type
  1405 ;;		None
  1406 ;; Return value:  Size  Location     Type
  1407 ;;                  1    wreg      void 
  1408 ;; Registers used:
  1409 ;;		wreg, status,2, status,0, tblptrl, tblptrh, tblptru, cstack
  1410 ;; Tracked objects:
  1411 ;;		On entry : 0/0
  1412 ;;		On exit  : 0/0
  1413 ;;		Unchanged: 0/0
  1414 ;; Data sizes:     COMRAM   BANK0   BANK1   BANK2   BANK3   BANK4   BANK5   BANK6   BANK7
  1415 ;;      Params:         0       0       0       0       0       0       0       0       0
  1416 ;;      Locals:         0       0       0       0       0       0       0       0       0
  1417 ;;      Temps:          0       0       0       0       0       0       0       0       0
  1418 ;;      Totals:         0       0       0       0       0       0       0       0       0
  1419 ;;Total ram usage:        0 bytes
  1420 ;; Hardware stack levels used:    1
  1421 ;; Hardware stack levels required when called:   10
  1422 ;; This function calls:
  1423 ;;		_SetDDRamAddr
  1424 ;;		_putrsXLCD
  1425 ;; This function is called by:
  1426 ;;		_main
  1427 ;;		_trocarTela
  1428 ;; This function uses a non-reentrant model
  1429 ;;
  1430                           
  1431                           	psect	text8
  1432  000F2C                     __ptext8:
  1433                           	opt stack 0
  1434  000F2C                     _btnEsquerdo:
  1435                           	opt stack 20
  1436                           
  1437                           ;comandos.c: 149: if (i == 0) {
  1438                           
  1439                           ;incstack = 0
  1440  000F2C  0100               	movlb	0	; () banked
  1441  000F2E  51EF               	movf	_i& (0+255),w,b
  1442  000F30  0100               	movlb	0	; () banked
  1443  000F32  11F0               	iorwf	(_i+1)& (0+255),w,b
  1444  000F34  A4D8               	btfss	status,2,c
  1445  000F36  D037               	goto	l2477
  1446                           
  1447                           ; BSR set to: 0
  1448                           ;comandos.c: 150: SetDDRamAddr(0x80);
  1449  000F38  0E80               	movlw	128
  1450  000F3A  EC68  F00C         	call	_SetDDRamAddr
  1451                           
  1452                           ;comandos.c: 151: putrsXLCD(" ");
  1453  000F3E  0E06               	movlw	low STR_1
  1454  000F40  0100               	movlb	0	; () banked
  1455  000F42  6F62               	movwf	putrsXLCD@buffer& (0+255),b
  1456  000F44  0E08               	movlw	high STR_1
  1457  000F46  0100               	movlb	0	; () banked
  1458  000F48  6F63               	movwf	(putrsXLCD@buffer+1)& (0+255),b
  1459  000F4A  ECEA  F00D         	call	_putrsXLCD	;wreg free
  1460                           
  1461                           ;comandos.c: 152: SetDDRamAddr(0xC0);
  1462  000F4E  0EC0               	movlw	192
  1463  000F50  EC68  F00C         	call	_SetDDRamAddr
  1464                           
  1465                           ;comandos.c: 153: putrsXLCD(" ");
  1466  000F54  0E06               	movlw	low STR_1
  1467  000F56  0100               	movlb	0	; () banked
  1468  000F58  6F62               	movwf	putrsXLCD@buffer& (0+255),b
  1469  000F5A  0E08               	movlw	high STR_1
  1470  000F5C  0100               	movlb	0	; () banked
  1471  000F5E  6F63               	movwf	(putrsXLCD@buffer+1)& (0+255),b
  1472  000F60  ECEA  F00D         	call	_putrsXLCD	;wreg free
  1473                           
  1474                           ;comandos.c: 154: SetDDRamAddr(0x94);
  1475  000F64  0E94               	movlw	148
  1476  000F66  EC68  F00C         	call	_SetDDRamAddr
  1477                           
  1478                           ;comandos.c: 155: putrsXLCD(" ");
  1479  000F6A  0E06               	movlw	low STR_1
  1480  000F6C  0100               	movlb	0	; () banked
  1481  000F6E  6F62               	movwf	putrsXLCD@buffer& (0+255),b
  1482  000F70  0E08               	movlw	high STR_1
  1483  000F72  0100               	movlb	0	; () banked
  1484  000F74  6F63               	movwf	(putrsXLCD@buffer+1)& (0+255),b
  1485  000F76  ECEA  F00D         	call	_putrsXLCD	;wreg free
  1486                           
  1487                           ;comandos.c: 156: SetDDRamAddr(0xD4);
  1488  000F7A  0ED4               	movlw	212
  1489  000F7C  EC68  F00C         	call	_SetDDRamAddr
  1490                           
  1491                           ;comandos.c: 157: putrsXLCD(" ");
  1492  000F80  0E06               	movlw	low STR_1
  1493  000F82  0100               	movlb	0	; () banked
  1494  000F84  6F62               	movwf	putrsXLCD@buffer& (0+255),b
  1495  000F86  0E08               	movlw	high STR_1
  1496  000F88  0100               	movlb	0	; () banked
  1497  000F8A  6F63               	movwf	(putrsXLCD@buffer+1)& (0+255),b
  1498  000F8C  ECEA  F00D         	call	_putrsXLCD	;wreg free
  1499                           
  1500                           ;comandos.c: 158: SetDDRamAddr(0x80);
  1501  000F90  0E80               	movlw	128
  1502  000F92  EC68  F00C         	call	_SetDDRamAddr
  1503                           
  1504                           ;comandos.c: 159: putrsXLCD("D");
  1505  000F96  0E0A               	movlw	low STR_5
  1506  000F98  0100               	movlb	0	; () banked
  1507  000F9A  6F62               	movwf	putrsXLCD@buffer& (0+255),b
  1508  000F9C  0E08               	movlw	high STR_5
  1509  000F9E  0100               	movlb	0	; () banked
  1510  000FA0  6F63               	movwf	(putrsXLCD@buffer+1)& (0+255),b
  1511  000FA2  ECEA  F00D         	call	_putrsXLCD	;wreg free
  1512  000FA6                     l2477:
  1513                           
  1514                           ;comandos.c: 160: }
  1515                           ;comandos.c: 161: if (i == 1) {
  1516  000FA6  0100               	movlb	0	; () banked
  1517  000FA8  05EF               	decf	_i& (0+255),w,b
  1518  000FAA  0100               	movlb	0	; () banked
  1519  000FAC  11F0               	iorwf	(_i+1)& (0+255),w,b
  1520  000FAE  A4D8               	btfss	status,2,c
  1521  000FB0  D037               	goto	l2493
  1522                           
  1523                           ; BSR set to: 0
  1524                           ;comandos.c: 162: SetDDRamAddr(0x80);
  1525  000FB2  0E80               	movlw	128
  1526  000FB4  EC68  F00C         	call	_SetDDRamAddr
  1527                           
  1528                           ;comandos.c: 163: putrsXLCD(" ");
  1529  000FB8  0E06               	movlw	low STR_1
  1530  000FBA  0100               	movlb	0	; () banked
  1531  000FBC  6F62               	movwf	putrsXLCD@buffer& (0+255),b
  1532  000FBE  0E08               	movlw	high STR_1
  1533  000FC0  0100               	movlb	0	; () banked
  1534  000FC2  6F63               	movwf	(putrsXLCD@buffer+1)& (0+255),b
  1535  000FC4  ECEA  F00D         	call	_putrsXLCD	;wreg free
  1536                           
  1537                           ;comandos.c: 164: SetDDRamAddr(0xC0);
  1538  000FC8  0EC0               	movlw	192
  1539  000FCA  EC68  F00C         	call	_SetDDRamAddr
  1540                           
  1541                           ;comandos.c: 165: putrsXLCD(" ");
  1542  000FCE  0E06               	movlw	low STR_1
  1543  000FD0  0100               	movlb	0	; () banked
  1544  000FD2  6F62               	movwf	putrsXLCD@buffer& (0+255),b
  1545  000FD4  0E08               	movlw	high STR_1
  1546  000FD6  0100               	movlb	0	; () banked
  1547  000FD8  6F63               	movwf	(putrsXLCD@buffer+1)& (0+255),b
  1548  000FDA  ECEA  F00D         	call	_putrsXLCD	;wreg free
  1549                           
  1550                           ;comandos.c: 166: SetDDRamAddr(0x94);
  1551  000FDE  0E94               	movlw	148
  1552  000FE0  EC68  F00C         	call	_SetDDRamAddr
  1553                           
  1554                           ;comandos.c: 167: putrsXLCD(" ");
  1555  000FE4  0E06               	movlw	low STR_1
  1556  000FE6  0100               	movlb	0	; () banked
  1557  000FE8  6F62               	movwf	putrsXLCD@buffer& (0+255),b
  1558  000FEA  0E08               	movlw	high STR_1
  1559  000FEC  0100               	movlb	0	; () banked
  1560  000FEE  6F63               	movwf	(putrsXLCD@buffer+1)& (0+255),b
  1561  000FF0  ECEA  F00D         	call	_putrsXLCD	;wreg free
  1562                           
  1563                           ;comandos.c: 168: SetDDRamAddr(0xD4);
  1564  000FF4  0ED4               	movlw	212
  1565  000FF6  EC68  F00C         	call	_SetDDRamAddr
  1566                           
  1567                           ;comandos.c: 169: putrsXLCD(" ");
  1568  000FFA  0E06               	movlw	low STR_1
  1569  000FFC  0100               	movlb	0	; () banked
  1570  000FFE  6F62               	movwf	putrsXLCD@buffer& (0+255),b
  1571  001000  0E08               	movlw	high STR_1
  1572  001002  0100               	movlb	0	; () banked
  1573  001004  6F63               	movwf	(putrsXLCD@buffer+1)& (0+255),b
  1574  001006  ECEA  F00D         	call	_putrsXLCD	;wreg free
  1575                           
  1576                           ;comandos.c: 170: SetDDRamAddr(0x80);
  1577  00100A  0E80               	movlw	128
  1578  00100C  EC68  F00C         	call	_SetDDRamAddr
  1579                           
  1580                           ;comandos.c: 171: putrsXLCD("D");
  1581  001010  0E0A               	movlw	low STR_5
  1582  001012  0100               	movlb	0	; () banked
  1583  001014  6F62               	movwf	putrsXLCD@buffer& (0+255),b
  1584  001016  0E08               	movlw	high STR_5
  1585  001018  0100               	movlb	0	; () banked
  1586  00101A  6F63               	movwf	(putrsXLCD@buffer+1)& (0+255),b
  1587  00101C  ECEA  F00D         	call	_putrsXLCD	;wreg free
  1588  001020                     l2493:
  1589                           
  1590                           ;comandos.c: 172: }
  1591                           ;comandos.c: 173: if (i == 2) {
  1592  001020  0E02               	movlw	2
  1593  001022  0100               	movlb	0	; () banked
  1594  001024  19EF               	xorwf	_i& (0+255),w,b
  1595  001026  0100               	movlb	0	; () banked
  1596  001028  11F0               	iorwf	(_i+1)& (0+255),w,b
  1597  00102A  A4D8               	btfss	status,2,c
  1598  00102C  D037               	goto	l2509
  1599                           
  1600                           ; BSR set to: 0
  1601                           ;comandos.c: 174: SetDDRamAddr(0x80);
  1602  00102E  0E80               	movlw	128
  1603  001030  EC68  F00C         	call	_SetDDRamAddr
  1604                           
  1605                           ;comandos.c: 175: putrsXLCD(" ");
  1606  001034  0E06               	movlw	low STR_1
  1607  001036  0100               	movlb	0	; () banked
  1608  001038  6F62               	movwf	putrsXLCD@buffer& (0+255),b
  1609  00103A  0E08               	movlw	high STR_1
  1610  00103C  0100               	movlb	0	; () banked
  1611  00103E  6F63               	movwf	(putrsXLCD@buffer+1)& (0+255),b
  1612  001040  ECEA  F00D         	call	_putrsXLCD	;wreg free
  1613                           
  1614                           ;comandos.c: 176: SetDDRamAddr(0xC0);
  1615  001044  0EC0               	movlw	192
  1616  001046  EC68  F00C         	call	_SetDDRamAddr
  1617                           
  1618                           ;comandos.c: 177: putrsXLCD(" ");
  1619  00104A  0E06               	movlw	low STR_1
  1620  00104C  0100               	movlb	0	; () banked
  1621  00104E  6F62               	movwf	putrsXLCD@buffer& (0+255),b
  1622  001050  0E08               	movlw	high STR_1
  1623  001052  0100               	movlb	0	; () banked
  1624  001054  6F63               	movwf	(putrsXLCD@buffer+1)& (0+255),b
  1625  001056  ECEA  F00D         	call	_putrsXLCD	;wreg free
  1626                           
  1627                           ;comandos.c: 178: SetDDRamAddr(0x94);
  1628  00105A  0E94               	movlw	148
  1629  00105C  EC68  F00C         	call	_SetDDRamAddr
  1630                           
  1631                           ;comandos.c: 179: putrsXLCD(" ");
  1632  001060  0E06               	movlw	low STR_1
  1633  001062  0100               	movlb	0	; () banked
  1634  001064  6F62               	movwf	putrsXLCD@buffer& (0+255),b
  1635  001066  0E08               	movlw	high STR_1
  1636  001068  0100               	movlb	0	; () banked
  1637  00106A  6F63               	movwf	(putrsXLCD@buffer+1)& (0+255),b
  1638  00106C  ECEA  F00D         	call	_putrsXLCD	;wreg free
  1639                           
  1640                           ;comandos.c: 180: SetDDRamAddr(0xD4);
  1641  001070  0ED4               	movlw	212
  1642  001072  EC68  F00C         	call	_SetDDRamAddr
  1643                           
  1644                           ;comandos.c: 181: putrsXLCD(" ");
  1645  001076  0E06               	movlw	low STR_1
  1646  001078  0100               	movlb	0	; () banked
  1647  00107A  6F62               	movwf	putrsXLCD@buffer& (0+255),b
  1648  00107C  0E08               	movlw	high STR_1
  1649  00107E  0100               	movlb	0	; () banked
  1650  001080  6F63               	movwf	(putrsXLCD@buffer+1)& (0+255),b
  1651  001082  ECEA  F00D         	call	_putrsXLCD	;wreg free
  1652                           
  1653                           ;comandos.c: 182: SetDDRamAddr(0xC0);
  1654  001086  0EC0               	movlw	192
  1655  001088  EC68  F00C         	call	_SetDDRamAddr
  1656                           
  1657                           ;comandos.c: 183: putrsXLCD("D");
  1658  00108C  0E0A               	movlw	low STR_5
  1659  00108E  0100               	movlb	0	; () banked
  1660  001090  6F62               	movwf	putrsXLCD@buffer& (0+255),b
  1661  001092  0E08               	movlw	high STR_5
  1662  001094  0100               	movlb	0	; () banked
  1663  001096  6F63               	movwf	(putrsXLCD@buffer+1)& (0+255),b
  1664  001098  ECEA  F00D         	call	_putrsXLCD	;wreg free
  1665  00109C                     l2509:
  1666                           
  1667                           ;comandos.c: 184: }
  1668                           ;comandos.c: 185: if (i == 3) {
  1669  00109C  0E03               	movlw	3
  1670  00109E  0100               	movlb	0	; () banked
  1671  0010A0  19EF               	xorwf	_i& (0+255),w,b
  1672  0010A2  0100               	movlb	0	; () banked
  1673  0010A4  11F0               	iorwf	(_i+1)& (0+255),w,b
  1674  0010A6  A4D8               	btfss	status,2,c
  1675  0010A8  D037               	goto	l2525
  1676                           
  1677                           ; BSR set to: 0
  1678                           ;comandos.c: 186: SetDDRamAddr(0x80);
  1679  0010AA  0E80               	movlw	128
  1680  0010AC  EC68  F00C         	call	_SetDDRamAddr
  1681                           
  1682                           ;comandos.c: 187: putrsXLCD(" ");
  1683  0010B0  0E06               	movlw	low STR_1
  1684  0010B2  0100               	movlb	0	; () banked
  1685  0010B4  6F62               	movwf	putrsXLCD@buffer& (0+255),b
  1686  0010B6  0E08               	movlw	high STR_1
  1687  0010B8  0100               	movlb	0	; () banked
  1688  0010BA  6F63               	movwf	(putrsXLCD@buffer+1)& (0+255),b
  1689  0010BC  ECEA  F00D         	call	_putrsXLCD	;wreg free
  1690                           
  1691                           ;comandos.c: 188: SetDDRamAddr(0xC0);
  1692  0010C0  0EC0               	movlw	192
  1693  0010C2  EC68  F00C         	call	_SetDDRamAddr
  1694                           
  1695                           ;comandos.c: 189: putrsXLCD(" ");
  1696  0010C6  0E06               	movlw	low STR_1
  1697  0010C8  0100               	movlb	0	; () banked
  1698  0010CA  6F62               	movwf	putrsXLCD@buffer& (0+255),b
  1699  0010CC  0E08               	movlw	high STR_1
  1700  0010CE  0100               	movlb	0	; () banked
  1701  0010D0  6F63               	movwf	(putrsXLCD@buffer+1)& (0+255),b
  1702  0010D2  ECEA  F00D         	call	_putrsXLCD	;wreg free
  1703                           
  1704                           ;comandos.c: 190: SetDDRamAddr(0x94);
  1705  0010D6  0E94               	movlw	148
  1706  0010D8  EC68  F00C         	call	_SetDDRamAddr
  1707                           
  1708                           ;comandos.c: 191: putrsXLCD(" ");
  1709  0010DC  0E06               	movlw	low STR_1
  1710  0010DE  0100               	movlb	0	; () banked
  1711  0010E0  6F62               	movwf	putrsXLCD@buffer& (0+255),b
  1712  0010E2  0E08               	movlw	high STR_1
  1713  0010E4  0100               	movlb	0	; () banked
  1714  0010E6  6F63               	movwf	(putrsXLCD@buffer+1)& (0+255),b
  1715  0010E8  ECEA  F00D         	call	_putrsXLCD	;wreg free
  1716                           
  1717                           ;comandos.c: 192: SetDDRamAddr(0xD4);
  1718  0010EC  0ED4               	movlw	212
  1719  0010EE  EC68  F00C         	call	_SetDDRamAddr
  1720                           
  1721                           ;comandos.c: 193: putrsXLCD(" ");
  1722  0010F2  0E06               	movlw	low STR_1
  1723  0010F4  0100               	movlb	0	; () banked
  1724  0010F6  6F62               	movwf	putrsXLCD@buffer& (0+255),b
  1725  0010F8  0E08               	movlw	high STR_1
  1726  0010FA  0100               	movlb	0	; () banked
  1727  0010FC  6F63               	movwf	(putrsXLCD@buffer+1)& (0+255),b
  1728  0010FE  ECEA  F00D         	call	_putrsXLCD	;wreg free
  1729                           
  1730                           ;comandos.c: 194: SetDDRamAddr(0x94);
  1731  001102  0E94               	movlw	148
  1732  001104  EC68  F00C         	call	_SetDDRamAddr
  1733                           
  1734                           ;comandos.c: 195: putrsXLCD("D");
  1735  001108  0E0A               	movlw	low STR_5
  1736  00110A  0100               	movlb	0	; () banked
  1737  00110C  6F62               	movwf	putrsXLCD@buffer& (0+255),b
  1738  00110E  0E08               	movlw	high STR_5
  1739  001110  0100               	movlb	0	; () banked
  1740  001112  6F63               	movwf	(putrsXLCD@buffer+1)& (0+255),b
  1741  001114  ECEA  F00D         	call	_putrsXLCD	;wreg free
  1742  001118                     l2525:
  1743                           
  1744                           ;comandos.c: 196: }
  1745                           ;comandos.c: 197: i--;
  1746  001118  0100               	movlb	0	; () banked
  1747  00111A  07EF               	decf	_i& (0+255),f,b
  1748  00111C  A0D8               	btfss	status,0,c
  1749  00111E  07F0               	decf	(_i+1)& (0+255),f,b
  1750                           
  1751                           ; BSR set to: 0
  1752                           ;comandos.c: 198: if (i == -1) {
  1753  001120  0100               	movlb	0	; () banked
  1754  001122  29EF               	incf	_i& (0+255),w,b
  1755  001124  E10A               	bnz	l156
  1756  001126  0100               	movlb	0	; () banked
  1757  001128  29F0               	incf	(_i+1)& (0+255),w,b
  1758  00112A  A4D8               	btfss	status,2,c
  1759  00112C  0012               	return	
  1760                           
  1761                           ; BSR set to: 0
  1762                           ;comandos.c: 199: i = 0;
  1763  00112E  0E00               	movlw	0
  1764  001130  0100               	movlb	0	; () banked
  1765  001132  6FF0               	movwf	(_i+1)& (0+255),b
  1766  001134  0E00               	movlw	0
  1767  001136  6FEF               	movwf	_i& (0+255),b
  1768  001138  0012               	return	
  1769  00113A                     l156:
  1770                           
  1771                           ; BSR set to: 0
  1772  00113A  0012               	return		;funcret
  1773  00113C                     __end_of_btnEsquerdo:
  1774                           	opt stack 0
  1775                           tblptru	equ	0xFF8
  1776                           tblptrh	equ	0xFF7
  1777                           tblptrl	equ	0xFF6
  1778                           tablat	equ	0xFF5
  1779                           intcon	equ	0xFF2
  1780                           postinc0	equ	0xFEE
  1781                           wreg	equ	0xFE8
  1782                           postdec1	equ	0xFE5
  1783                           fsr1l	equ	0xFE1
  1784                           indf2	equ	0xFDF
  1785                           fsr2h	equ	0xFDA
  1786                           fsr2l	equ	0xFD9
  1787                           status	equ	0xFD8
  1788                           
  1789 ;; *************** function _btnDireito *****************
  1790 ;; Defined at:
  1791 ;;		line 92 in file "comandos.c"
  1792 ;; Parameters:    Size  Location     Type
  1793 ;;		None
  1794 ;; Auto vars:     Size  Location     Type
  1795 ;;		None
  1796 ;; Return value:  Size  Location     Type
  1797 ;;                  1    wreg      void 
  1798 ;; Registers used:
  1799 ;;		wreg, status,2, status,0, tblptrl, tblptrh, tblptru, cstack
  1800 ;; Tracked objects:
  1801 ;;		On entry : 0/0
  1802 ;;		On exit  : 0/0
  1803 ;;		Unchanged: 0/0
  1804 ;; Data sizes:     COMRAM   BANK0   BANK1   BANK2   BANK3   BANK4   BANK5   BANK6   BANK7
  1805 ;;      Params:         0       0       0       0       0       0       0       0       0
  1806 ;;      Locals:         0       0       0       0       0       0       0       0       0
  1807 ;;      Temps:          0       0       0       0       0       0       0       0       0
  1808 ;;      Totals:         0       0       0       0       0       0       0       0       0
  1809 ;;Total ram usage:        0 bytes
  1810 ;; Hardware stack levels used:    1
  1811 ;; Hardware stack levels required when called:   10
  1812 ;; This function calls:
  1813 ;;		_SetDDRamAddr
  1814 ;;		_putrsXLCD
  1815 ;; This function is called by:
  1816 ;;		_main
  1817 ;;		_trocarTela
  1818 ;; This function uses a non-reentrant model
  1819 ;;
  1820                           
  1821                           	psect	text9
  1822  00113C                     __ptext9:
  1823                           	opt stack 0
  1824  00113C                     _btnDireito:
  1825                           	opt stack 20
  1826                           
  1827                           ;comandos.c: 93: if(i==0){
  1828                           
  1829                           ; BSR set to: 0
  1830                           ;incstack = 0
  1831  00113C  0100               	movlb	0	; () banked
  1832  00113E  51EF               	movf	_i& (0+255),w,b
  1833  001140  0100               	movlb	0	; () banked
  1834  001142  11F0               	iorwf	(_i+1)& (0+255),w,b
  1835  001144  A4D8               	btfss	status,2,c
  1836  001146  D037               	goto	l2407
  1837                           
  1838                           ; BSR set to: 0
  1839                           ;comandos.c: 94: SetDDRamAddr(0x00);
  1840  001148  0E00               	movlw	0
  1841  00114A  EC68  F00C         	call	_SetDDRamAddr
  1842                           
  1843                           ;comandos.c: 95: putrsXLCD(" ");
  1844  00114E  0E06               	movlw	low STR_1
  1845  001150  0100               	movlb	0	; () banked
  1846  001152  6F62               	movwf	putrsXLCD@buffer& (0+255),b
  1847  001154  0E08               	movlw	high STR_1
  1848  001156  0100               	movlb	0	; () banked
  1849  001158  6F63               	movwf	(putrsXLCD@buffer+1)& (0+255),b
  1850  00115A  ECEA  F00D         	call	_putrsXLCD	;wreg free
  1851                           
  1852                           ;comandos.c: 96: SetDDRamAddr(0x40);
  1853  00115E  0E40               	movlw	64
  1854  001160  EC68  F00C         	call	_SetDDRamAddr
  1855                           
  1856                           ;comandos.c: 97: putrsXLCD(" ");
  1857  001164  0E06               	movlw	low STR_1
  1858  001166  0100               	movlb	0	; () banked
  1859  001168  6F62               	movwf	putrsXLCD@buffer& (0+255),b
  1860  00116A  0E08               	movlw	high STR_1
  1861  00116C  0100               	movlb	0	; () banked
  1862  00116E  6F63               	movwf	(putrsXLCD@buffer+1)& (0+255),b
  1863  001170  ECEA  F00D         	call	_putrsXLCD	;wreg free
  1864                           
  1865                           ;comandos.c: 98: SetDDRamAddr(0x14);
  1866  001174  0E14               	movlw	20
  1867  001176  EC68  F00C         	call	_SetDDRamAddr
  1868                           
  1869                           ;comandos.c: 99: putrsXLCD(" ");
  1870  00117A  0E06               	movlw	low STR_1
  1871  00117C  0100               	movlb	0	; () banked
  1872  00117E  6F62               	movwf	putrsXLCD@buffer& (0+255),b
  1873  001180  0E08               	movlw	high STR_1
  1874  001182  0100               	movlb	0	; () banked
  1875  001184  6F63               	movwf	(putrsXLCD@buffer+1)& (0+255),b
  1876  001186  ECEA  F00D         	call	_putrsXLCD	;wreg free
  1877                           
  1878                           ;comandos.c: 100: SetDDRamAddr(0x54);
  1879  00118A  0E54               	movlw	84
  1880  00118C  EC68  F00C         	call	_SetDDRamAddr
  1881                           
  1882                           ;comandos.c: 101: putrsXLCD(" ");
  1883  001190  0E06               	movlw	low STR_1
  1884  001192  0100               	movlb	0	; () banked
  1885  001194  6F62               	movwf	putrsXLCD@buffer& (0+255),b
  1886  001196  0E08               	movlw	high STR_1
  1887  001198  0100               	movlb	0	; () banked
  1888  00119A  6F63               	movwf	(putrsXLCD@buffer+1)& (0+255),b
  1889  00119C  ECEA  F00D         	call	_putrsXLCD	;wreg free
  1890                           
  1891                           ;comandos.c: 102: SetDDRamAddr(0x40);
  1892  0011A0  0E40               	movlw	64
  1893  0011A2  EC68  F00C         	call	_SetDDRamAddr
  1894                           
  1895                           ;comandos.c: 103: putrsXLCD("D");
  1896  0011A6  0E0A               	movlw	low STR_5
  1897  0011A8  0100               	movlb	0	; () banked
  1898  0011AA  6F62               	movwf	putrsXLCD@buffer& (0+255),b
  1899  0011AC  0E08               	movlw	high STR_5
  1900  0011AE  0100               	movlb	0	; () banked
  1901  0011B0  6F63               	movwf	(putrsXLCD@buffer+1)& (0+255),b
  1902  0011B2  ECEA  F00D         	call	_putrsXLCD	;wreg free
  1903  0011B6                     l2407:
  1904                           
  1905                           ;comandos.c: 104: }
  1906                           ;comandos.c: 105: if(i==1){
  1907  0011B6  0100               	movlb	0	; () banked
  1908  0011B8  05EF               	decf	_i& (0+255),w,b
  1909  0011BA  0100               	movlb	0	; () banked
  1910  0011BC  11F0               	iorwf	(_i+1)& (0+255),w,b
  1911  0011BE  A4D8               	btfss	status,2,c
  1912  0011C0  D037               	goto	l2423
  1913                           
  1914                           ; BSR set to: 0
  1915                           ;comandos.c: 106: SetDDRamAddr(0x00);
  1916  0011C2  0E00               	movlw	0
  1917  0011C4  EC68  F00C         	call	_SetDDRamAddr
  1918                           
  1919                           ;comandos.c: 107: putrsXLCD(" ");
  1920  0011C8  0E06               	movlw	low STR_1
  1921  0011CA  0100               	movlb	0	; () banked
  1922  0011CC  6F62               	movwf	putrsXLCD@buffer& (0+255),b
  1923  0011CE  0E08               	movlw	high STR_1
  1924  0011D0  0100               	movlb	0	; () banked
  1925  0011D2  6F63               	movwf	(putrsXLCD@buffer+1)& (0+255),b
  1926  0011D4  ECEA  F00D         	call	_putrsXLCD	;wreg free
  1927                           
  1928                           ;comandos.c: 108: SetDDRamAddr(0x40);
  1929  0011D8  0E40               	movlw	64
  1930  0011DA  EC68  F00C         	call	_SetDDRamAddr
  1931                           
  1932                           ;comandos.c: 109: putrsXLCD(" ");
  1933  0011DE  0E06               	movlw	low STR_1
  1934  0011E0  0100               	movlb	0	; () banked
  1935  0011E2  6F62               	movwf	putrsXLCD@buffer& (0+255),b
  1936  0011E4  0E08               	movlw	high STR_1
  1937  0011E6  0100               	movlb	0	; () banked
  1938  0011E8  6F63               	movwf	(putrsXLCD@buffer+1)& (0+255),b
  1939  0011EA  ECEA  F00D         	call	_putrsXLCD	;wreg free
  1940                           
  1941                           ;comandos.c: 110: SetDDRamAddr(0x14);
  1942  0011EE  0E14               	movlw	20
  1943  0011F0  EC68  F00C         	call	_SetDDRamAddr
  1944                           
  1945                           ;comandos.c: 111: putrsXLCD(" ");
  1946  0011F4  0E06               	movlw	low STR_1
  1947  0011F6  0100               	movlb	0	; () banked
  1948  0011F8  6F62               	movwf	putrsXLCD@buffer& (0+255),b
  1949  0011FA  0E08               	movlw	high STR_1
  1950  0011FC  0100               	movlb	0	; () banked
  1951  0011FE  6F63               	movwf	(putrsXLCD@buffer+1)& (0+255),b
  1952  001200  ECEA  F00D         	call	_putrsXLCD	;wreg free
  1953                           
  1954                           ;comandos.c: 112: SetDDRamAddr(0x54);
  1955  001204  0E54               	movlw	84
  1956  001206  EC68  F00C         	call	_SetDDRamAddr
  1957                           
  1958                           ;comandos.c: 113: putrsXLCD(" ");
  1959  00120A  0E06               	movlw	low STR_1
  1960  00120C  0100               	movlb	0	; () banked
  1961  00120E  6F62               	movwf	putrsXLCD@buffer& (0+255),b
  1962  001210  0E08               	movlw	high STR_1
  1963  001212  0100               	movlb	0	; () banked
  1964  001214  6F63               	movwf	(putrsXLCD@buffer+1)& (0+255),b
  1965  001216  ECEA  F00D         	call	_putrsXLCD	;wreg free
  1966                           
  1967                           ;comandos.c: 114: SetDDRamAddr(0x14);
  1968  00121A  0E14               	movlw	20
  1969  00121C  EC68  F00C         	call	_SetDDRamAddr
  1970                           
  1971                           ;comandos.c: 115: putrsXLCD("D");
  1972  001220  0E0A               	movlw	low STR_5
  1973  001222  0100               	movlb	0	; () banked
  1974  001224  6F62               	movwf	putrsXLCD@buffer& (0+255),b
  1975  001226  0E08               	movlw	high STR_5
  1976  001228  0100               	movlb	0	; () banked
  1977  00122A  6F63               	movwf	(putrsXLCD@buffer+1)& (0+255),b
  1978  00122C  ECEA  F00D         	call	_putrsXLCD	;wreg free
  1979  001230                     l2423:
  1980                           
  1981                           ;comandos.c: 116: }
  1982                           ;comandos.c: 117: if(i==2){
  1983  001230  0E02               	movlw	2
  1984  001232  0100               	movlb	0	; () banked
  1985  001234  19EF               	xorwf	_i& (0+255),w,b
  1986  001236  0100               	movlb	0	; () banked
  1987  001238  11F0               	iorwf	(_i+1)& (0+255),w,b
  1988  00123A  A4D8               	btfss	status,2,c
  1989  00123C  D037               	goto	l2439
  1990                           
  1991                           ; BSR set to: 0
  1992                           ;comandos.c: 118: SetDDRamAddr(0x00);
  1993  00123E  0E00               	movlw	0
  1994  001240  EC68  F00C         	call	_SetDDRamAddr
  1995                           
  1996                           ;comandos.c: 119: putrsXLCD(" ");
  1997  001244  0E06               	movlw	low STR_1
  1998  001246  0100               	movlb	0	; () banked
  1999  001248  6F62               	movwf	putrsXLCD@buffer& (0+255),b
  2000  00124A  0E08               	movlw	high STR_1
  2001  00124C  0100               	movlb	0	; () banked
  2002  00124E  6F63               	movwf	(putrsXLCD@buffer+1)& (0+255),b
  2003  001250  ECEA  F00D         	call	_putrsXLCD	;wreg free
  2004                           
  2005                           ;comandos.c: 120: SetDDRamAddr(0x40);
  2006  001254  0E40               	movlw	64
  2007  001256  EC68  F00C         	call	_SetDDRamAddr
  2008                           
  2009                           ;comandos.c: 121: putrsXLCD(" ");
  2010  00125A  0E06               	movlw	low STR_1
  2011  00125C  0100               	movlb	0	; () banked
  2012  00125E  6F62               	movwf	putrsXLCD@buffer& (0+255),b
  2013  001260  0E08               	movlw	high STR_1
  2014  001262  0100               	movlb	0	; () banked
  2015  001264  6F63               	movwf	(putrsXLCD@buffer+1)& (0+255),b
  2016  001266  ECEA  F00D         	call	_putrsXLCD	;wreg free
  2017                           
  2018                           ;comandos.c: 122: SetDDRamAddr(0x14);
  2019  00126A  0E14               	movlw	20
  2020  00126C  EC68  F00C         	call	_SetDDRamAddr
  2021                           
  2022                           ;comandos.c: 123: putrsXLCD(" ");
  2023  001270  0E06               	movlw	low STR_1
  2024  001272  0100               	movlb	0	; () banked
  2025  001274  6F62               	movwf	putrsXLCD@buffer& (0+255),b
  2026  001276  0E08               	movlw	high STR_1
  2027  001278  0100               	movlb	0	; () banked
  2028  00127A  6F63               	movwf	(putrsXLCD@buffer+1)& (0+255),b
  2029  00127C  ECEA  F00D         	call	_putrsXLCD	;wreg free
  2030                           
  2031                           ;comandos.c: 124: SetDDRamAddr(0x54);
  2032  001280  0E54               	movlw	84
  2033  001282  EC68  F00C         	call	_SetDDRamAddr
  2034                           
  2035                           ;comandos.c: 125: putrsXLCD(" ");
  2036  001286  0E06               	movlw	low STR_1
  2037  001288  0100               	movlb	0	; () banked
  2038  00128A  6F62               	movwf	putrsXLCD@buffer& (0+255),b
  2039  00128C  0E08               	movlw	high STR_1
  2040  00128E  0100               	movlb	0	; () banked
  2041  001290  6F63               	movwf	(putrsXLCD@buffer+1)& (0+255),b
  2042  001292  ECEA  F00D         	call	_putrsXLCD	;wreg free
  2043                           
  2044                           ;comandos.c: 126: SetDDRamAddr(0x54);
  2045  001296  0E54               	movlw	84
  2046  001298  EC68  F00C         	call	_SetDDRamAddr
  2047                           
  2048                           ;comandos.c: 127: putrsXLCD("D");
  2049  00129C  0E0A               	movlw	low STR_5
  2050  00129E  0100               	movlb	0	; () banked
  2051  0012A0  6F62               	movwf	putrsXLCD@buffer& (0+255),b
  2052  0012A2  0E08               	movlw	high STR_5
  2053  0012A4  0100               	movlb	0	; () banked
  2054  0012A6  6F63               	movwf	(putrsXLCD@buffer+1)& (0+255),b
  2055  0012A8  ECEA  F00D         	call	_putrsXLCD	;wreg free
  2056  0012AC                     l2439:
  2057                           
  2058                           ;comandos.c: 128: }
  2059                           ;comandos.c: 129: if(i==3){
  2060  0012AC  0E03               	movlw	3
  2061  0012AE  0100               	movlb	0	; () banked
  2062  0012B0  19EF               	xorwf	_i& (0+255),w,b
  2063  0012B2  0100               	movlb	0	; () banked
  2064  0012B4  11F0               	iorwf	(_i+1)& (0+255),w,b
  2065  0012B6  A4D8               	btfss	status,2,c
  2066  0012B8  D037               	goto	l2455
  2067                           
  2068                           ; BSR set to: 0
  2069                           ;comandos.c: 130: SetDDRamAddr(0x00);
  2070  0012BA  0E00               	movlw	0
  2071  0012BC  EC68  F00C         	call	_SetDDRamAddr
  2072                           
  2073                           ;comandos.c: 131: putrsXLCD(" ");
  2074  0012C0  0E06               	movlw	low STR_1
  2075  0012C2  0100               	movlb	0	; () banked
  2076  0012C4  6F62               	movwf	putrsXLCD@buffer& (0+255),b
  2077  0012C6  0E08               	movlw	high STR_1
  2078  0012C8  0100               	movlb	0	; () banked
  2079  0012CA  6F63               	movwf	(putrsXLCD@buffer+1)& (0+255),b
  2080  0012CC  ECEA  F00D         	call	_putrsXLCD	;wreg free
  2081                           
  2082                           ;comandos.c: 132: SetDDRamAddr(0x40);
  2083  0012D0  0E40               	movlw	64
  2084  0012D2  EC68  F00C         	call	_SetDDRamAddr
  2085                           
  2086                           ;comandos.c: 133: putrsXLCD(" ");
  2087  0012D6  0E06               	movlw	low STR_1
  2088  0012D8  0100               	movlb	0	; () banked
  2089  0012DA  6F62               	movwf	putrsXLCD@buffer& (0+255),b
  2090  0012DC  0E08               	movlw	high STR_1
  2091  0012DE  0100               	movlb	0	; () banked
  2092  0012E0  6F63               	movwf	(putrsXLCD@buffer+1)& (0+255),b
  2093  0012E2  ECEA  F00D         	call	_putrsXLCD	;wreg free
  2094                           
  2095                           ;comandos.c: 134: SetDDRamAddr(0x14);
  2096  0012E6  0E14               	movlw	20
  2097  0012E8  EC68  F00C         	call	_SetDDRamAddr
  2098                           
  2099                           ;comandos.c: 135: putrsXLCD(" ");
  2100  0012EC  0E06               	movlw	low STR_1
  2101  0012EE  0100               	movlb	0	; () banked
  2102  0012F0  6F62               	movwf	putrsXLCD@buffer& (0+255),b
  2103  0012F2  0E08               	movlw	high STR_1
  2104  0012F4  0100               	movlb	0	; () banked
  2105  0012F6  6F63               	movwf	(putrsXLCD@buffer+1)& (0+255),b
  2106  0012F8  ECEA  F00D         	call	_putrsXLCD	;wreg free
  2107                           
  2108                           ;comandos.c: 136: SetDDRamAddr(0x54);
  2109  0012FC  0E54               	movlw	84
  2110  0012FE  EC68  F00C         	call	_SetDDRamAddr
  2111                           
  2112                           ;comandos.c: 137: putrsXLCD(" ");
  2113  001302  0E06               	movlw	low STR_1
  2114  001304  0100               	movlb	0	; () banked
  2115  001306  6F62               	movwf	putrsXLCD@buffer& (0+255),b
  2116  001308  0E08               	movlw	high STR_1
  2117  00130A  0100               	movlb	0	; () banked
  2118  00130C  6F63               	movwf	(putrsXLCD@buffer+1)& (0+255),b
  2119  00130E  ECEA  F00D         	call	_putrsXLCD	;wreg free
  2120                           
  2121                           ;comandos.c: 138: SetDDRamAddr(0x54);
  2122  001312  0E54               	movlw	84
  2123  001314  EC68  F00C         	call	_SetDDRamAddr
  2124                           
  2125                           ;comandos.c: 139: putrsXLCD("D");
  2126  001318  0E0A               	movlw	low STR_5
  2127  00131A  0100               	movlb	0	; () banked
  2128  00131C  6F62               	movwf	putrsXLCD@buffer& (0+255),b
  2129  00131E  0E08               	movlw	high STR_5
  2130  001320  0100               	movlb	0	; () banked
  2131  001322  6F63               	movwf	(putrsXLCD@buffer+1)& (0+255),b
  2132  001324  ECEA  F00D         	call	_putrsXLCD	;wreg free
  2133  001328                     l2455:
  2134                           
  2135                           ;comandos.c: 140: }
  2136                           ;comandos.c: 141: i++;
  2137  001328  0100               	movlb	0	; () banked
  2138  00132A  4BEF               	infsnz	_i& (0+255),f,b
  2139  00132C  2BF0               	incf	(_i+1)& (0+255),f,b
  2140                           
  2141                           ; BSR set to: 0
  2142                           ;comandos.c: 142: if(i==4){
  2143  00132E  0E04               	movlw	4
  2144  001330  0100               	movlb	0	; () banked
  2145  001332  19EF               	xorwf	_i& (0+255),w,b
  2146  001334  0100               	movlb	0	; () banked
  2147  001336  11F0               	iorwf	(_i+1)& (0+255),w,b
  2148  001338  A4D8               	btfss	status,2,c
  2149  00133A  0012               	return	
  2150                           
  2151                           ; BSR set to: 0
  2152                           ;comandos.c: 143: i = 3;
  2153  00133C  0E00               	movlw	0
  2154  00133E  0100               	movlb	0	; () banked
  2155  001340  6FF0               	movwf	(_i+1)& (0+255),b
  2156  001342  0E03               	movlw	3
  2157  001344  6FEF               	movwf	_i& (0+255),b
  2158  001346  0012               	return	
  2159  001348                     __end_of_btnDireito:
  2160                           	opt stack 0
  2161                           tblptru	equ	0xFF8
  2162                           tblptrh	equ	0xFF7
  2163                           tblptrl	equ	0xFF6
  2164                           tablat	equ	0xFF5
  2165                           intcon	equ	0xFF2
  2166                           postinc0	equ	0xFEE
  2167                           wreg	equ	0xFE8
  2168                           postdec1	equ	0xFE5
  2169                           fsr1l	equ	0xFE1
  2170                           indf2	equ	0xFDF
  2171                           fsr2h	equ	0xFDA
  2172                           fsr2l	equ	0xFD9
  2173                           status	equ	0xFD8
  2174                           
  2175 ;; *************** function _btnAtira *****************
  2176 ;; Defined at:
  2177 ;;		line 203 in file "comandos.c"
  2178 ;; Parameters:    Size  Location     Type
  2179 ;;		None
  2180 ;; Auto vars:     Size  Location     Type
  2181 ;;  coluna3         2   75[BANK0 ] int 
  2182 ;;  coluna2         2   73[BANK0 ] int 
  2183 ;;  coluna1         2   71[BANK0 ] int 
  2184 ;;  coluna0         2   69[BANK0 ] int 
  2185 ;;  pos_linha3     15   54[BANK0 ] unsigned char [15]
  2186 ;;  pos_linha2     15   39[BANK0 ] unsigned char [15]
  2187 ;;  pos_linha1     15   24[BANK0 ] unsigned char [15]
  2188 ;;  pos_linha0     15    9[BANK0 ] unsigned char [15]
  2189 ;; Return value:  Size  Location     Type
  2190 ;;                  1    wreg      void 
  2191 ;; Registers used:
  2192 ;;		wreg, fsr1l, fsr1h, fsr2l, fsr2h, status,2, status,0, tblptrl, tblptrh, tblptru, cstack
  2193 ;; Tracked objects:
  2194 ;;		On entry : 0/0
  2195 ;;		On exit  : 0/0
  2196 ;;		Unchanged: 0/0
  2197 ;; Data sizes:     COMRAM   BANK0   BANK1   BANK2   BANK3   BANK4   BANK5   BANK6   BANK7
  2198 ;;      Params:         0       0       0       0       0       0       0       0       0
  2199 ;;      Locals:         0      68       0       0       0       0       0       0       0
  2200 ;;      Temps:          0       4       0       0       0       0       0       0       0
  2201 ;;      Totals:         0      72       0       0       0       0       0       0       0
  2202 ;;Total ram usage:       72 bytes
  2203 ;; Hardware stack levels used:    1
  2204 ;; Hardware stack levels required when called:   10
  2205 ;; This function calls:
  2206 ;;		_Delay10KTCYx
  2207 ;;		_SetDDRamAddr
  2208 ;;		_putrsXLCD
  2209 ;; This function is called by:
  2210 ;;		_main
  2211 ;; This function uses a non-reentrant model
  2212 ;;
  2213                           
  2214                           	psect	text10
  2215  000810                     __ptext10:
  2216                           	opt stack 0
  2217  000810                     _btnAtira:
  2218                           	opt stack 20
  2219                           
  2220                           ;comandos.c: 205: char pos_linha0[] = {0x81, 0x82, 0x83, 0x84, 0x85, 0x86, 0x87, 0x88, 0
      +                          x89, 0x8A, 0x8B, 0x8C, 0x8D, 0x8E, 0x8F};
  2221                           
  2222                           ; BSR set to: 0
  2223                           ;incstack = 0
  2224  000810  EE20  F0DA         	lfsr	2,btnAtira@F4904
  2225  000814  EE10  F069         	lfsr	1,btnAtira@pos_linha0
  2226  000818  0E0E               	movlw	14
  2227  00081A                     u1161:
  2228  00081A  CFDB FFE3          	movff	plusw2,plusw1
  2229  00081E  06E8               	decf	wreg,f,c
  2230  000820  E2FC               	bc	u1161
  2231                           
  2232                           ;comandos.c: 206: char pos_linha1[] = {0xC1, 0xC2, 0xC3, 0xC4, 0xC5, 0xC6, 0xC7, 0xC8, 0
      +                          xC9, 0xCA, 0xCB, 0xCC, 0xCD, 0xCE, 0xCF};
  2233  000822  EE20  F0CB         	lfsr	2,btnAtira@F4906
  2234  000826  EE10  F078         	lfsr	1,btnAtira@pos_linha1
  2235  00082A  0E0E               	movlw	14
  2236  00082C                     u1171:
  2237  00082C  CFDB FFE3          	movff	plusw2,plusw1
  2238  000830  06E8               	decf	wreg,f,c
  2239  000832  E2FC               	bc	u1171
  2240                           
  2241                           ;comandos.c: 207: char pos_linha2[] = {0x95, 0x96, 0x97, 0x98, 0x99, 0x9A, 0x9B, 0x9C, 0
      +                          x9D, 0x9E, 0x9F, 0xA0, 0xA1, 0xA2, 0xA3};
  2242  000834  EE20  F0BC         	lfsr	2,btnAtira@F4908
  2243  000838  EE10  F087         	lfsr	1,btnAtira@pos_linha2
  2244  00083C  0E0E               	movlw	14
  2245  00083E                     u1181:
  2246  00083E  CFDB FFE3          	movff	plusw2,plusw1
  2247  000842  06E8               	decf	wreg,f,c
  2248  000844  E2FC               	bc	u1181
  2249                           
  2250                           ;comandos.c: 208: char pos_linha3[] = {0xD5, 0xD6, 0xD7, 0xD8, 0xD9, 0xDA, 0xDB, 0xDC, 0
      +                          xDD, 0xDE, 0xDF, 0xE0, 0xE1, 0xE2, 0xE3};
  2251  000846  EE20  F0AD         	lfsr	2,btnAtira@F4910
  2252  00084A  EE10  F096         	lfsr	1,btnAtira@pos_linha3
  2253  00084E  0E0E               	movlw	14
  2254  000850                     u1191:
  2255  000850  CFDB FFE3          	movff	plusw2,plusw1
  2256  000854  06E8               	decf	wreg,f,c
  2257  000856  E2FC               	bc	u1191
  2258                           
  2259                           ;comandos.c: 210: if (i == 0) {
  2260  000858  0100               	movlb	0	; () banked
  2261  00085A  51EF               	movf	_i& (0+255),w,b
  2262  00085C  0100               	movlb	0	; () banked
  2263  00085E  11F0               	iorwf	(_i+1)& (0+255),w,b
  2264  000860  A4D8               	btfss	status,2,c
  2265  000862  D06A               	goto	l2557
  2266                           
  2267                           ; BSR set to: 0
  2268                           ;comandos.c: 211: SetDDRamAddr(0x81);
  2269  000864  0E81               	movlw	129
  2270  000866  EC68  F00C         	call	_SetDDRamAddr
  2271                           
  2272                           ;comandos.c: 212: putrsXLCD("-");
  2273  00086A  0E08               	movlw	low STR_46
  2274  00086C  0100               	movlb	0	; () banked
  2275  00086E  6F62               	movwf	putrsXLCD@buffer& (0+255),b
  2276  000870  0E08               	movlw	high STR_46
  2277  000872  0100               	movlb	0	; () banked
  2278  000874  6F63               	movwf	(putrsXLCD@buffer+1)& (0+255),b
  2279  000876  ECEA  F00D         	call	_putrsXLCD	;wreg free
  2280                           
  2281                           ;comandos.c: 213: int coluna0 = 1;
  2282  00087A  0E00               	movlw	0
  2283  00087C  0100               	movlb	0	; () banked
  2284  00087E  6FA6               	movwf	(btnAtira@coluna0+1)& (0+255),b
  2285  000880  0E01               	movlw	1
  2286  000882  6FA5               	movwf	btnAtira@coluna0& (0+255),b
  2287                           
  2288                           ;comandos.c: 214: while (coluna0 < 15) {
  2289  000884  D04A               	goto	l2553
  2290  000886                     l2541:
  2291                           
  2292                           ; BSR set to: 0
  2293                           ;comandos.c: 215: SetDDRamAddr(pos_linha0[coluna0]);
  2294  000886  0E69               	movlw	low btnAtira@pos_linha0
  2295  000888  0100               	movlb	0	; () banked
  2296  00088A  25A5               	addwf	btnAtira@coluna0& (0+255),w,b
  2297  00088C  6ED9               	movwf	fsr2l,c
  2298  00088E  0E00               	movlw	high btnAtira@pos_linha0
  2299  000890  0100               	movlb	0	; () banked
  2300  000892  21A6               	addwfc	(btnAtira@coluna0+1)& (0+255),w,b
  2301  000894  6EDA               	movwf	fsr2h,c
  2302  000896  50DF               	movf	indf2,w,c
  2303  000898  EC68  F00C         	call	_SetDDRamAddr
  2304                           
  2305                           ;comandos.c: 216: putrsXLCD("-");
  2306  00089C  0E08               	movlw	low STR_46
  2307  00089E  0100               	movlb	0	; () banked
  2308  0008A0  6F62               	movwf	putrsXLCD@buffer& (0+255),b
  2309  0008A2  0E08               	movlw	high STR_46
  2310  0008A4  0100               	movlb	0	; () banked
  2311  0008A6  6F63               	movwf	(putrsXLCD@buffer+1)& (0+255),b
  2312  0008A8  ECEA  F00D         	call	_putrsXLCD	;wreg free
  2313                           
  2314                           ;comandos.c: 217: SetDDRamAddr(pos_linha0[coluna0 - 1]);
  2315  0008AC  0EFF               	movlw	255
  2316  0008AE  0100               	movlb	0	; () banked
  2317  0008B0  6F65               	movwf	??_btnAtira& (0+255),b
  2318  0008B2  0EFF               	movlw	255
  2319  0008B4  0100               	movlb	0	; () banked
  2320  0008B6  6F66               	movwf	(??_btnAtira+1)& (0+255),b
  2321  0008B8  C0A5  F067         	movff	btnAtira@coluna0,??_btnAtira+2
  2322  0008BC  C0A6  F068         	movff	btnAtira@coluna0+1,??_btnAtira+3
  2323  0008C0  0100               	movlb	0	; () banked
  2324  0008C2  5165               	movf	??_btnAtira& (0+255),w,b
  2325  0008C4  0100               	movlb	0	; () banked
  2326  0008C6  2767               	addwf	(??_btnAtira+2)& (0+255),f,b
  2327  0008C8  0100               	movlb	0	; () banked
  2328  0008CA  5166               	movf	(??_btnAtira+1)& (0+255),w,b
  2329  0008CC  0100               	movlb	0	; () banked
  2330  0008CE  2368               	addwfc	(??_btnAtira+3)& (0+255),f,b
  2331  0008D0  0E69               	movlw	low btnAtira@pos_linha0
  2332  0008D2  0100               	movlb	0	; () banked
  2333  0008D4  2567               	addwf	(??_btnAtira+2)& (0+255),w,b
  2334  0008D6  6ED9               	movwf	fsr2l,c
  2335  0008D8  0E00               	movlw	high btnAtira@pos_linha0
  2336  0008DA  0100               	movlb	0	; () banked
  2337  0008DC  2168               	addwfc	(??_btnAtira+3)& (0+255),w,b
  2338  0008DE  6EDA               	movwf	fsr2h,c
  2339  0008E0  50DF               	movf	indf2,w,c
  2340  0008E2  EC68  F00C         	call	_SetDDRamAddr
  2341                           
  2342                           ;comandos.c: 218: putrsXLCD(" ");
  2343  0008E6  0E06               	movlw	low STR_1
  2344  0008E8  0100               	movlb	0	; () banked
  2345  0008EA  6F62               	movwf	putrsXLCD@buffer& (0+255),b
  2346  0008EC  0E08               	movlw	high STR_1
  2347  0008EE  0100               	movlb	0	; () banked
  2348  0008F0  6F63               	movwf	(putrsXLCD@buffer+1)& (0+255),b
  2349  0008F2  ECEA  F00D         	call	_putrsXLCD	;wreg free
  2350                           
  2351                           ;comandos.c: 219: coluna0++;
  2352  0008F6  0100               	movlb	0	; () banked
  2353  0008F8  4BA5               	infsnz	btnAtira@coluna0& (0+255),f,b
  2354  0008FA  2BA6               	incf	(btnAtira@coluna0+1)& (0+255),f,b
  2355                           
  2356                           ; BSR set to: 0
  2357                           ;comandos.c: 220: Delay10KTCYx(25);
  2358  0008FC  0E19               	movlw	25
  2359  0008FE  EC47  F00E         	call	_Delay10KTCYx
  2360                           
  2361                           ;comandos.c: 221: SetDDRamAddr(pos_linha0[14]);
  2362  000902  0100               	movlb	0	; () banked
  2363  000904  5177               	movf	(btnAtira@pos_linha0+14)& (0+255),w,b
  2364  000906  EC68  F00C         	call	_SetDDRamAddr
  2365                           
  2366                           ;comandos.c: 222: putrsXLCD(" ");
  2367  00090A  0E06               	movlw	low STR_1
  2368  00090C  0100               	movlb	0	; () banked
  2369  00090E  6F62               	movwf	putrsXLCD@buffer& (0+255),b
  2370  000910  0E08               	movlw	high STR_1
  2371  000912  0100               	movlb	0	; () banked
  2372  000914  6F63               	movwf	(putrsXLCD@buffer+1)& (0+255),b
  2373  000916  ECEA  F00D         	call	_putrsXLCD	;wreg free
  2374  00091A                     l2553:
  2375  00091A  0100               	movlb	0	; () banked
  2376  00091C  BFA6               	btfsc	(btnAtira@coluna0+1)& (0+255),7,b
  2377  00091E  D7B3               	goto	l2541
  2378  000920  0100               	movlb	0	; () banked
  2379  000922  51A6               	movf	(btnAtira@coluna0+1)& (0+255),w,b
  2380  000924  E105               	bnz	l2555
  2381  000926  0E0F               	movlw	15
  2382  000928  0100               	movlb	0	; () banked
  2383  00092A  5DA5               	subwf	btnAtira@coluna0& (0+255),w,b
  2384  00092C  A0D8               	btfss	status,0,c
  2385  00092E  D7AB               	goto	l2541
  2386  000930                     l2555:
  2387                           
  2388                           ; BSR set to: 0
  2389                           ;comandos.c: 223: }
  2390                           ;comandos.c: 224: matar = 0;
  2391  000930  0E00               	movlw	0
  2392  000932  6E5D               	movwf	_matar+1,c
  2393  000934  0E00               	movlw	0
  2394  000936  6E5C               	movwf	_matar,c
  2395  000938                     l2557:
  2396                           
  2397                           ; BSR set to: 0
  2398                           ;comandos.c: 225: }
  2399                           ;comandos.c: 226: if (i == 1) {
  2400  000938  0100               	movlb	0	; () banked
  2401  00093A  05EF               	decf	_i& (0+255),w,b
  2402  00093C  0100               	movlb	0	; () banked
  2403  00093E  11F0               	iorwf	(_i+1)& (0+255),w,b
  2404  000940  A4D8               	btfss	status,2,c
  2405  000942  D06A               	goto	l2581
  2406                           
  2407                           ; BSR set to: 0
  2408                           ;comandos.c: 227: SetDDRamAddr(0xC1);
  2409  000944  0EC1               	movlw	193
  2410  000946  EC68  F00C         	call	_SetDDRamAddr
  2411                           
  2412                           ;comandos.c: 228: putrsXLCD("-");
  2413  00094A  0E08               	movlw	low STR_46
  2414  00094C  0100               	movlb	0	; () banked
  2415  00094E  6F62               	movwf	putrsXLCD@buffer& (0+255),b
  2416  000950  0E08               	movlw	high STR_46
  2417  000952  0100               	movlb	0	; () banked
  2418  000954  6F63               	movwf	(putrsXLCD@buffer+1)& (0+255),b
  2419  000956  ECEA  F00D         	call	_putrsXLCD	;wreg free
  2420                           
  2421                           ;comandos.c: 229: int coluna1 = 1;
  2422  00095A  0E00               	movlw	0
  2423  00095C  0100               	movlb	0	; () banked
  2424  00095E  6FA8               	movwf	(btnAtira@coluna1+1)& (0+255),b
  2425  000960  0E01               	movlw	1
  2426  000962  6FA7               	movwf	btnAtira@coluna1& (0+255),b
  2427                           
  2428                           ;comandos.c: 230: while (coluna1 < 15) {
  2429  000964  D04A               	goto	l2577
  2430  000966                     l2565:
  2431                           
  2432                           ; BSR set to: 0
  2433                           ;comandos.c: 231: SetDDRamAddr(pos_linha1[coluna1]);
  2434  000966  0E78               	movlw	low btnAtira@pos_linha1
  2435  000968  0100               	movlb	0	; () banked
  2436  00096A  25A7               	addwf	btnAtira@coluna1& (0+255),w,b
  2437  00096C  6ED9               	movwf	fsr2l,c
  2438  00096E  0E00               	movlw	high btnAtira@pos_linha1
  2439  000970  0100               	movlb	0	; () banked
  2440  000972  21A8               	addwfc	(btnAtira@coluna1+1)& (0+255),w,b
  2441  000974  6EDA               	movwf	fsr2h,c
  2442  000976  50DF               	movf	indf2,w,c
  2443  000978  EC68  F00C         	call	_SetDDRamAddr
  2444                           
  2445                           ;comandos.c: 232: putrsXLCD("-");
  2446  00097C  0E08               	movlw	low STR_46
  2447  00097E  0100               	movlb	0	; () banked
  2448  000980  6F62               	movwf	putrsXLCD@buffer& (0+255),b
  2449  000982  0E08               	movlw	high STR_46
  2450  000984  0100               	movlb	0	; () banked
  2451  000986  6F63               	movwf	(putrsXLCD@buffer+1)& (0+255),b
  2452  000988  ECEA  F00D         	call	_putrsXLCD	;wreg free
  2453                           
  2454                           ;comandos.c: 233: SetDDRamAddr(pos_linha1[coluna1 - 1]);
  2455  00098C  0EFF               	movlw	255
  2456  00098E  0100               	movlb	0	; () banked
  2457  000990  6F65               	movwf	??_btnAtira& (0+255),b
  2458  000992  0EFF               	movlw	255
  2459  000994  0100               	movlb	0	; () banked
  2460  000996  6F66               	movwf	(??_btnAtira+1)& (0+255),b
  2461  000998  C0A7  F067         	movff	btnAtira@coluna1,??_btnAtira+2
  2462  00099C  C0A8  F068         	movff	btnAtira@coluna1+1,??_btnAtira+3
  2463  0009A0  0100               	movlb	0	; () banked
  2464  0009A2  5165               	movf	??_btnAtira& (0+255),w,b
  2465  0009A4  0100               	movlb	0	; () banked
  2466  0009A6  2767               	addwf	(??_btnAtira+2)& (0+255),f,b
  2467  0009A8  0100               	movlb	0	; () banked
  2468  0009AA  5166               	movf	(??_btnAtira+1)& (0+255),w,b
  2469  0009AC  0100               	movlb	0	; () banked
  2470  0009AE  2368               	addwfc	(??_btnAtira+3)& (0+255),f,b
  2471  0009B0  0E78               	movlw	low btnAtira@pos_linha1
  2472  0009B2  0100               	movlb	0	; () banked
  2473  0009B4  2567               	addwf	(??_btnAtira+2)& (0+255),w,b
  2474  0009B6  6ED9               	movwf	fsr2l,c
  2475  0009B8  0E00               	movlw	high btnAtira@pos_linha1
  2476  0009BA  0100               	movlb	0	; () banked
  2477  0009BC  2168               	addwfc	(??_btnAtira+3)& (0+255),w,b
  2478  0009BE  6EDA               	movwf	fsr2h,c
  2479  0009C0  50DF               	movf	indf2,w,c
  2480  0009C2  EC68  F00C         	call	_SetDDRamAddr
  2481                           
  2482                           ;comandos.c: 234: putrsXLCD(" ");
  2483  0009C6  0E06               	movlw	low STR_1
  2484  0009C8  0100               	movlb	0	; () banked
  2485  0009CA  6F62               	movwf	putrsXLCD@buffer& (0+255),b
  2486  0009CC  0E08               	movlw	high STR_1
  2487  0009CE  0100               	movlb	0	; () banked
  2488  0009D0  6F63               	movwf	(putrsXLCD@buffer+1)& (0+255),b
  2489  0009D2  ECEA  F00D         	call	_putrsXLCD	;wreg free
  2490                           
  2491                           ;comandos.c: 235: coluna1++;
  2492  0009D6  0100               	movlb	0	; () banked
  2493  0009D8  4BA7               	infsnz	btnAtira@coluna1& (0+255),f,b
  2494  0009DA  2BA8               	incf	(btnAtira@coluna1+1)& (0+255),f,b
  2495                           
  2496                           ; BSR set to: 0
  2497                           ;comandos.c: 236: Delay10KTCYx(25);
  2498  0009DC  0E19               	movlw	25
  2499  0009DE  EC47  F00E         	call	_Delay10KTCYx
  2500                           
  2501                           ;comandos.c: 237: SetDDRamAddr(pos_linha1[14]);
  2502  0009E2  0100               	movlb	0	; () banked
  2503  0009E4  5186               	movf	(btnAtira@pos_linha1+14)& (0+255),w,b
  2504  0009E6  EC68  F00C         	call	_SetDDRamAddr
  2505                           
  2506                           ;comandos.c: 238: putrsXLCD(" ");
  2507  0009EA  0E06               	movlw	low STR_1
  2508  0009EC  0100               	movlb	0	; () banked
  2509  0009EE  6F62               	movwf	putrsXLCD@buffer& (0+255),b
  2510  0009F0  0E08               	movlw	high STR_1
  2511  0009F2  0100               	movlb	0	; () banked
  2512  0009F4  6F63               	movwf	(putrsXLCD@buffer+1)& (0+255),b
  2513  0009F6  ECEA  F00D         	call	_putrsXLCD	;wreg free
  2514  0009FA                     l2577:
  2515  0009FA  0100               	movlb	0	; () banked
  2516  0009FC  BFA8               	btfsc	(btnAtira@coluna1+1)& (0+255),7,b
  2517  0009FE  D7B3               	goto	l2565
  2518  000A00  0100               	movlb	0	; () banked
  2519  000A02  51A8               	movf	(btnAtira@coluna1+1)& (0+255),w,b
  2520  000A04  E105               	bnz	l2579
  2521  000A06  0E0F               	movlw	15
  2522  000A08  0100               	movlb	0	; () banked
  2523  000A0A  5DA7               	subwf	btnAtira@coluna1& (0+255),w,b
  2524  000A0C  A0D8               	btfss	status,0,c
  2525  000A0E  D7AB               	goto	l2565
  2526  000A10                     l2579:
  2527                           
  2528                           ; BSR set to: 0
  2529                           ;comandos.c: 239: }
  2530                           ;comandos.c: 240: matar = 1;
  2531  000A10  0E00               	movlw	0
  2532  000A12  6E5D               	movwf	_matar+1,c
  2533  000A14  0E01               	movlw	1
  2534  000A16  6E5C               	movwf	_matar,c
  2535  000A18                     l2581:
  2536                           
  2537                           ; BSR set to: 0
  2538                           ;comandos.c: 241: }
  2539                           ;comandos.c: 242: if (i == 2) {
  2540  000A18  0E02               	movlw	2
  2541  000A1A  0100               	movlb	0	; () banked
  2542  000A1C  19EF               	xorwf	_i& (0+255),w,b
  2543  000A1E  0100               	movlb	0	; () banked
  2544  000A20  11F0               	iorwf	(_i+1)& (0+255),w,b
  2545  000A22  A4D8               	btfss	status,2,c
  2546  000A24  D06A               	goto	l2605
  2547                           
  2548                           ; BSR set to: 0
  2549                           ;comandos.c: 243: SetDDRamAddr(0x95);
  2550  000A26  0E95               	movlw	149
  2551  000A28  EC68  F00C         	call	_SetDDRamAddr
  2552                           
  2553                           ;comandos.c: 244: putrsXLCD("-");
  2554  000A2C  0E08               	movlw	low STR_46
  2555  000A2E  0100               	movlb	0	; () banked
  2556  000A30  6F62               	movwf	putrsXLCD@buffer& (0+255),b
  2557  000A32  0E08               	movlw	high STR_46
  2558  000A34  0100               	movlb	0	; () banked
  2559  000A36  6F63               	movwf	(putrsXLCD@buffer+1)& (0+255),b
  2560  000A38  ECEA  F00D         	call	_putrsXLCD	;wreg free
  2561                           
  2562                           ;comandos.c: 245: int coluna2 = 1;
  2563  000A3C  0E00               	movlw	0
  2564  000A3E  0100               	movlb	0	; () banked
  2565  000A40  6FAA               	movwf	(btnAtira@coluna2+1)& (0+255),b
  2566  000A42  0E01               	movlw	1
  2567  000A44  6FA9               	movwf	btnAtira@coluna2& (0+255),b
  2568                           
  2569                           ;comandos.c: 246: while (coluna2 < 15) {
  2570  000A46  D04A               	goto	l2601
  2571  000A48                     l2589:
  2572                           
  2573                           ; BSR set to: 0
  2574                           ;comandos.c: 247: SetDDRamAddr(pos_linha2[coluna2]);
  2575  000A48  0E87               	movlw	low btnAtira@pos_linha2
  2576  000A4A  0100               	movlb	0	; () banked
  2577  000A4C  25A9               	addwf	btnAtira@coluna2& (0+255),w,b
  2578  000A4E  6ED9               	movwf	fsr2l,c
  2579  000A50  0E00               	movlw	high btnAtira@pos_linha2
  2580  000A52  0100               	movlb	0	; () banked
  2581  000A54  21AA               	addwfc	(btnAtira@coluna2+1)& (0+255),w,b
  2582  000A56  6EDA               	movwf	fsr2h,c
  2583  000A58  50DF               	movf	indf2,w,c
  2584  000A5A  EC68  F00C         	call	_SetDDRamAddr
  2585                           
  2586                           ;comandos.c: 248: putrsXLCD("-");
  2587  000A5E  0E08               	movlw	low STR_46
  2588  000A60  0100               	movlb	0	; () banked
  2589  000A62  6F62               	movwf	putrsXLCD@buffer& (0+255),b
  2590  000A64  0E08               	movlw	high STR_46
  2591  000A66  0100               	movlb	0	; () banked
  2592  000A68  6F63               	movwf	(putrsXLCD@buffer+1)& (0+255),b
  2593  000A6A  ECEA  F00D         	call	_putrsXLCD	;wreg free
  2594                           
  2595                           ;comandos.c: 249: SetDDRamAddr(pos_linha2[coluna2 - 1]);
  2596  000A6E  0EFF               	movlw	255
  2597  000A70  0100               	movlb	0	; () banked
  2598  000A72  6F65               	movwf	??_btnAtira& (0+255),b
  2599  000A74  0EFF               	movlw	255
  2600  000A76  0100               	movlb	0	; () banked
  2601  000A78  6F66               	movwf	(??_btnAtira+1)& (0+255),b
  2602  000A7A  C0A9  F067         	movff	btnAtira@coluna2,??_btnAtira+2
  2603  000A7E  C0AA  F068         	movff	btnAtira@coluna2+1,??_btnAtira+3
  2604  000A82  0100               	movlb	0	; () banked
  2605  000A84  5165               	movf	??_btnAtira& (0+255),w,b
  2606  000A86  0100               	movlb	0	; () banked
  2607  000A88  2767               	addwf	(??_btnAtira+2)& (0+255),f,b
  2608  000A8A  0100               	movlb	0	; () banked
  2609  000A8C  5166               	movf	(??_btnAtira+1)& (0+255),w,b
  2610  000A8E  0100               	movlb	0	; () banked
  2611  000A90  2368               	addwfc	(??_btnAtira+3)& (0+255),f,b
  2612  000A92  0E87               	movlw	low btnAtira@pos_linha2
  2613  000A94  0100               	movlb	0	; () banked
  2614  000A96  2567               	addwf	(??_btnAtira+2)& (0+255),w,b
  2615  000A98  6ED9               	movwf	fsr2l,c
  2616  000A9A  0E00               	movlw	high btnAtira@pos_linha2
  2617  000A9C  0100               	movlb	0	; () banked
  2618  000A9E  2168               	addwfc	(??_btnAtira+3)& (0+255),w,b
  2619  000AA0  6EDA               	movwf	fsr2h,c
  2620  000AA2  50DF               	movf	indf2,w,c
  2621  000AA4  EC68  F00C         	call	_SetDDRamAddr
  2622                           
  2623                           ;comandos.c: 250: putrsXLCD(" ");
  2624  000AA8  0E06               	movlw	low STR_1
  2625  000AAA  0100               	movlb	0	; () banked
  2626  000AAC  6F62               	movwf	putrsXLCD@buffer& (0+255),b
  2627  000AAE  0E08               	movlw	high STR_1
  2628  000AB0  0100               	movlb	0	; () banked
  2629  000AB2  6F63               	movwf	(putrsXLCD@buffer+1)& (0+255),b
  2630  000AB4  ECEA  F00D         	call	_putrsXLCD	;wreg free
  2631                           
  2632                           ;comandos.c: 251: coluna2++;
  2633  000AB8  0100               	movlb	0	; () banked
  2634  000ABA  4BA9               	infsnz	btnAtira@coluna2& (0+255),f,b
  2635  000ABC  2BAA               	incf	(btnAtira@coluna2+1)& (0+255),f,b
  2636                           
  2637                           ; BSR set to: 0
  2638                           ;comandos.c: 252: Delay10KTCYx(25);
  2639  000ABE  0E19               	movlw	25
  2640  000AC0  EC47  F00E         	call	_Delay10KTCYx
  2641                           
  2642                           ;comandos.c: 253: SetDDRamAddr(pos_linha2[14]);
  2643  000AC4  0100               	movlb	0	; () banked
  2644  000AC6  5195               	movf	(btnAtira@pos_linha2+14)& (0+255),w,b
  2645  000AC8  EC68  F00C         	call	_SetDDRamAddr
  2646                           
  2647                           ;comandos.c: 254: putrsXLCD(" ");
  2648  000ACC  0E06               	movlw	low STR_1
  2649  000ACE  0100               	movlb	0	; () banked
  2650  000AD0  6F62               	movwf	putrsXLCD@buffer& (0+255),b
  2651  000AD2  0E08               	movlw	high STR_1
  2652  000AD4  0100               	movlb	0	; () banked
  2653  000AD6  6F63               	movwf	(putrsXLCD@buffer+1)& (0+255),b
  2654  000AD8  ECEA  F00D         	call	_putrsXLCD	;wreg free
  2655  000ADC                     l2601:
  2656  000ADC  0100               	movlb	0	; () banked
  2657  000ADE  BFAA               	btfsc	(btnAtira@coluna2+1)& (0+255),7,b
  2658  000AE0  D7B3               	goto	l2589
  2659  000AE2  0100               	movlb	0	; () banked
  2660  000AE4  51AA               	movf	(btnAtira@coluna2+1)& (0+255),w,b
  2661  000AE6  E105               	bnz	l2603
  2662  000AE8  0E0F               	movlw	15
  2663  000AEA  0100               	movlb	0	; () banked
  2664  000AEC  5DA9               	subwf	btnAtira@coluna2& (0+255),w,b
  2665  000AEE  A0D8               	btfss	status,0,c
  2666  000AF0  D7AB               	goto	l2589
  2667  000AF2                     l2603:
  2668                           
  2669                           ; BSR set to: 0
  2670                           ;comandos.c: 255: }
  2671                           ;comandos.c: 256: matar = 2;
  2672  000AF2  0E00               	movlw	0
  2673  000AF4  6E5D               	movwf	_matar+1,c
  2674  000AF6  0E02               	movlw	2
  2675  000AF8  6E5C               	movwf	_matar,c
  2676  000AFA                     l2605:
  2677                           
  2678                           ; BSR set to: 0
  2679                           ;comandos.c: 257: }
  2680                           ;comandos.c: 258: if (i == 3) {
  2681  000AFA  0E03               	movlw	3
  2682  000AFC  0100               	movlb	0	; () banked
  2683  000AFE  19EF               	xorwf	_i& (0+255),w,b
  2684  000B00  0100               	movlb	0	; () banked
  2685  000B02  11F0               	iorwf	(_i+1)& (0+255),w,b
  2686  000B04  A4D8               	btfss	status,2,c
  2687  000B06  D06A               	goto	l2629
  2688                           
  2689                           ; BSR set to: 0
  2690                           ;comandos.c: 259: SetDDRamAddr(0xD5);
  2691  000B08  0ED5               	movlw	213
  2692  000B0A  EC68  F00C         	call	_SetDDRamAddr
  2693                           
  2694                           ;comandos.c: 260: putrsXLCD("-");
  2695  000B0E  0E08               	movlw	low STR_46
  2696  000B10  0100               	movlb	0	; () banked
  2697  000B12  6F62               	movwf	putrsXLCD@buffer& (0+255),b
  2698  000B14  0E08               	movlw	high STR_46
  2699  000B16  0100               	movlb	0	; () banked
  2700  000B18  6F63               	movwf	(putrsXLCD@buffer+1)& (0+255),b
  2701  000B1A  ECEA  F00D         	call	_putrsXLCD	;wreg free
  2702                           
  2703                           ;comandos.c: 261: int coluna3 = 1;
  2704  000B1E  0E00               	movlw	0
  2705  000B20  0100               	movlb	0	; () banked
  2706  000B22  6FAC               	movwf	(btnAtira@coluna3+1)& (0+255),b
  2707  000B24  0E01               	movlw	1
  2708  000B26  6FAB               	movwf	btnAtira@coluna3& (0+255),b
  2709                           
  2710                           ;comandos.c: 262: while (coluna3 < 15) {
  2711  000B28  D04A               	goto	l2625
  2712  000B2A                     l2613:
  2713                           
  2714                           ; BSR set to: 0
  2715                           ;comandos.c: 263: SetDDRamAddr(pos_linha3[coluna3]);
  2716  000B2A  0E96               	movlw	low btnAtira@pos_linha3
  2717  000B2C  0100               	movlb	0	; () banked
  2718  000B2E  25AB               	addwf	btnAtira@coluna3& (0+255),w,b
  2719  000B30  6ED9               	movwf	fsr2l,c
  2720  000B32  0E00               	movlw	high btnAtira@pos_linha3
  2721  000B34  0100               	movlb	0	; () banked
  2722  000B36  21AC               	addwfc	(btnAtira@coluna3+1)& (0+255),w,b
  2723  000B38  6EDA               	movwf	fsr2h,c
  2724  000B3A  50DF               	movf	indf2,w,c
  2725  000B3C  EC68  F00C         	call	_SetDDRamAddr
  2726                           
  2727                           ;comandos.c: 264: putrsXLCD("-");
  2728  000B40  0E08               	movlw	low STR_46
  2729  000B42  0100               	movlb	0	; () banked
  2730  000B44  6F62               	movwf	putrsXLCD@buffer& (0+255),b
  2731  000B46  0E08               	movlw	high STR_46
  2732  000B48  0100               	movlb	0	; () banked
  2733  000B4A  6F63               	movwf	(putrsXLCD@buffer+1)& (0+255),b
  2734  000B4C  ECEA  F00D         	call	_putrsXLCD	;wreg free
  2735                           
  2736                           ;comandos.c: 265: SetDDRamAddr(pos_linha3[coluna3 - 1]);
  2737  000B50  0EFF               	movlw	255
  2738  000B52  0100               	movlb	0	; () banked
  2739  000B54  6F65               	movwf	??_btnAtira& (0+255),b
  2740  000B56  0EFF               	movlw	255
  2741  000B58  0100               	movlb	0	; () banked
  2742  000B5A  6F66               	movwf	(??_btnAtira+1)& (0+255),b
  2743  000B5C  C0AB  F067         	movff	btnAtira@coluna3,??_btnAtira+2
  2744  000B60  C0AC  F068         	movff	btnAtira@coluna3+1,??_btnAtira+3
  2745  000B64  0100               	movlb	0	; () banked
  2746  000B66  5165               	movf	??_btnAtira& (0+255),w,b
  2747  000B68  0100               	movlb	0	; () banked
  2748  000B6A  2767               	addwf	(??_btnAtira+2)& (0+255),f,b
  2749  000B6C  0100               	movlb	0	; () banked
  2750  000B6E  5166               	movf	(??_btnAtira+1)& (0+255),w,b
  2751  000B70  0100               	movlb	0	; () banked
  2752  000B72  2368               	addwfc	(??_btnAtira+3)& (0+255),f,b
  2753  000B74  0E96               	movlw	low btnAtira@pos_linha3
  2754  000B76  0100               	movlb	0	; () banked
  2755  000B78  2567               	addwf	(??_btnAtira+2)& (0+255),w,b
  2756  000B7A  6ED9               	movwf	fsr2l,c
  2757  000B7C  0E00               	movlw	high btnAtira@pos_linha3
  2758  000B7E  0100               	movlb	0	; () banked
  2759  000B80  2168               	addwfc	(??_btnAtira+3)& (0+255),w,b
  2760  000B82  6EDA               	movwf	fsr2h,c
  2761  000B84  50DF               	movf	indf2,w,c
  2762  000B86  EC68  F00C         	call	_SetDDRamAddr
  2763                           
  2764                           ;comandos.c: 266: putrsXLCD(" ");
  2765  000B8A  0E06               	movlw	low STR_1
  2766  000B8C  0100               	movlb	0	; () banked
  2767  000B8E  6F62               	movwf	putrsXLCD@buffer& (0+255),b
  2768  000B90  0E08               	movlw	high STR_1
  2769  000B92  0100               	movlb	0	; () banked
  2770  000B94  6F63               	movwf	(putrsXLCD@buffer+1)& (0+255),b
  2771  000B96  ECEA  F00D         	call	_putrsXLCD	;wreg free
  2772                           
  2773                           ;comandos.c: 267: coluna3++;
  2774  000B9A  0100               	movlb	0	; () banked
  2775  000B9C  4BAB               	infsnz	btnAtira@coluna3& (0+255),f,b
  2776  000B9E  2BAC               	incf	(btnAtira@coluna3+1)& (0+255),f,b
  2777                           
  2778                           ; BSR set to: 0
  2779                           ;comandos.c: 268: Delay10KTCYx(25);
  2780  000BA0  0E19               	movlw	25
  2781  000BA2  EC47  F00E         	call	_Delay10KTCYx
  2782                           
  2783                           ;comandos.c: 269: SetDDRamAddr(pos_linha3[14]);
  2784  000BA6  0100               	movlb	0	; () banked
  2785  000BA8  51A4               	movf	(btnAtira@pos_linha3+14)& (0+255),w,b
  2786  000BAA  EC68  F00C         	call	_SetDDRamAddr
  2787                           
  2788                           ;comandos.c: 270: putrsXLCD(" ");
  2789  000BAE  0E06               	movlw	low STR_1
  2790  000BB0  0100               	movlb	0	; () banked
  2791  000BB2  6F62               	movwf	putrsXLCD@buffer& (0+255),b
  2792  000BB4  0E08               	movlw	high STR_1
  2793  000BB6  0100               	movlb	0	; () banked
  2794  000BB8  6F63               	movwf	(putrsXLCD@buffer+1)& (0+255),b
  2795  000BBA  ECEA  F00D         	call	_putrsXLCD	;wreg free
  2796  000BBE                     l2625:
  2797  000BBE  0100               	movlb	0	; () banked
  2798  000BC0  BFAC               	btfsc	(btnAtira@coluna3+1)& (0+255),7,b
  2799  000BC2  D7B3               	goto	l2613
  2800  000BC4  0100               	movlb	0	; () banked
  2801  000BC6  51AC               	movf	(btnAtira@coluna3+1)& (0+255),w,b
  2802  000BC8  E105               	bnz	l2627
  2803  000BCA  0E0F               	movlw	15
  2804  000BCC  0100               	movlb	0	; () banked
  2805  000BCE  5DAB               	subwf	btnAtira@coluna3& (0+255),w,b
  2806  000BD0  A0D8               	btfss	status,0,c
  2807  000BD2  D7AB               	goto	l2613
  2808  000BD4                     l2627:
  2809                           
  2810                           ; BSR set to: 0
  2811                           ;comandos.c: 271: }
  2812                           ;comandos.c: 272: matar = 3;
  2813  000BD4  0E00               	movlw	0
  2814  000BD6  6E5D               	movwf	_matar+1,c
  2815  000BD8  0E03               	movlw	3
  2816  000BDA  6E5C               	movwf	_matar,c
  2817  000BDC                     l2629:
  2818                           
  2819                           ; BSR set to: 0
  2820                           ;comandos.c: 273: }
  2821                           ;comandos.c: 274: if (controle >= 4) {
  2822  000BDC  0100               	movlb	0	; () banked
  2823  000BDE  BFEE               	btfsc	(_controle+1)& (0+255),7,b
  2824  000BE0  0012               	return	
  2825  000BE2  0100               	movlb	0	; () banked
  2826  000BE4  51EE               	movf	(_controle+1)& (0+255),w,b
  2827  000BE6  E105               	bnz	u1280
  2828  000BE8  0E04               	movlw	4
  2829  000BEA  0100               	movlb	0	; () banked
  2830  000BEC  5DED               	subwf	_controle& (0+255),w,b
  2831  000BEE  A0D8               	btfss	status,0,c
  2832  000BF0  0012               	return	
  2833  000BF2                     u1280:
  2834                           
  2835                           ; BSR set to: 0
  2836                           ;comandos.c: 275: controle = 0;
  2837  000BF2  0E00               	movlw	0
  2838  000BF4  0100               	movlb	0	; () banked
  2839  000BF6  6FEE               	movwf	(_controle+1)& (0+255),b
  2840  000BF8  0E00               	movlw	0
  2841  000BFA  6FED               	movwf	_controle& (0+255),b
  2842  000BFC  0012               	return	
  2843  000BFE                     __end_of_btnAtira:
  2844                           	opt stack 0
  2845                           tblptru	equ	0xFF8
  2846                           tblptrh	equ	0xFF7
  2847                           tblptrl	equ	0xFF6
  2848                           tablat	equ	0xFF5
  2849                           intcon	equ	0xFF2
  2850                           postinc0	equ	0xFEE
  2851                           wreg	equ	0xFE8
  2852                           postdec1	equ	0xFE5
  2853                           plusw1	equ	0xFE3
  2854                           fsr1l	equ	0xFE1
  2855                           indf2	equ	0xFDF
  2856                           plusw2	equ	0xFDB
  2857                           fsr2h	equ	0xFDA
  2858                           fsr2l	equ	0xFD9
  2859                           status	equ	0xFD8
  2860                           
  2861 ;; *************** function _putrsXLCD *****************
  2862 ;; Defined at:
  2863 ;;		line 16 in file "C:\Program Files (x86)\Microchip\xc8\v1.41\sources\pic18\plib\XLCD\putrxlcd.c"
  2864 ;; Parameters:    Size  Location     Type
  2865 ;;  buffer          2    2[BANK0 ] PTR const unsigned char 
  2866 ;;		 -> STR_74(5), STR_73(2), STR_72(2), STR_71(2), 
  2867 ;;		 -> STR_70(2), STR_69(2), STR_68(2), STR_67(2), 
  2868 ;;		 -> STR_66(2), STR_65(2), STR_64(2), STR_63(2), 
  2869 ;;		 -> STR_62(2), STR_61(2), STR_60(2), STR_59(2), 
  2870 ;;		 -> STR_58(2), STR_57(2), STR_56(2), STR_55(2), 
  2871 ;;		 -> STR_54(2), STR_53(2), STR_52(2), STR_51(2), 
  2872 ;;		 -> STR_50(2), STR_49(2), STR_48(2), STR_47(2), 
  2873 ;;		 -> STR_46(2), STR_45(2), STR_44(2), STR_43(2), 
  2874 ;;		 -> STR_42(2), STR_41(2), STR_40(2), STR_39(2), 
  2875 ;;		 -> STR_38(2), STR_37(2), STR_36(2), STR_35(2), 
  2876 ;;		 -> STR_34(2), STR_33(2), STR_32(2), STR_31(2), 
  2877 ;;		 -> STR_30(2), STR_29(2), STR_28(2), STR_27(2), 
  2878 ;;		 -> STR_26(2), STR_25(2), STR_24(2), STR_23(2), 
  2879 ;;		 -> STR_22(2), STR_21(2), STR_20(2), STR_19(2), 
  2880 ;;		 -> STR_18(2), STR_17(2), STR_16(2), STR_15(2), 
  2881 ;;		 -> STR_14(2), STR_13(2), STR_12(2), STR_11(2), 
  2882 ;;		 -> STR_10(2), STR_9(2), STR_8(2), STR_7(2), 
  2883 ;;		 -> STR_6(2), STR_5(2), STR_4(2), STR_3(2), 
  2884 ;;		 -> STR_2(2), STR_1(2), 
  2885 ;; Auto vars:     Size  Location     Type
  2886 ;;		None
  2887 ;; Return value:  Size  Location     Type
  2888 ;;                  1    wreg      void 
  2889 ;; Registers used:
  2890 ;;		wreg, status,2, status,0, tblptrl, tblptrh, tblptru, cstack
  2891 ;; Tracked objects:
  2892 ;;		On entry : 0/0
  2893 ;;		On exit  : 0/0
  2894 ;;		Unchanged: 0/0
  2895 ;; Data sizes:     COMRAM   BANK0   BANK1   BANK2   BANK3   BANK4   BANK5   BANK6   BANK7
  2896 ;;      Params:         0       2       0       0       0       0       0       0       0
  2897 ;;      Locals:         0       0       0       0       0       0       0       0       0
  2898 ;;      Temps:          0       0       0       0       0       0       0       0       0
  2899 ;;      Totals:         0       2       0       0       0       0       0       0       0
  2900 ;;Total ram usage:        2 bytes
  2901 ;; Hardware stack levels used:    1
  2902 ;; Hardware stack levels required when called:    9
  2903 ;; This function calls:
  2904 ;;		_BusyXLCD
  2905 ;;		_WriteDataXLCD
  2906 ;; This function is called by:
  2907 ;;		_controi_tank
  2908 ;;		_btnDireito
  2909 ;;		_btnEsquerdo
  2910 ;;		_btnAtira
  2911 ;;		_obstaculo
  2912 ;;		_mostrarInfo
  2913 ;; This function uses a non-reentrant model
  2914 ;;
  2915                           
  2916                           	psect	text11
  2917  001BD4                     __ptext11:
  2918                           	opt stack 0
  2919  001BD4                     _putrsXLCD:
  2920                           	opt stack 20
  2921                           
  2922                           ; BSR set to: 0
  2923                           ;incstack = 0
  2924  001BD4  D010               	goto	l2229
  2925  001BD6                     l2223:
  2926  001BD6  ECB0  F00D         	call	_BusyXLCD	;wreg free
  2927  001BDA  0900               	iorlw	0
  2928  001BDC  A4D8               	btfss	status,2,c
  2929  001BDE  D7FB               	goto	l2223
  2930  001BE0  C062  FFF6         	movff	putrsXLCD@buffer,tblptrl
  2931  001BE4  C063  FFF7         	movff	putrsXLCD@buffer+1,tblptrh
  2932  001BE8                     	if	0	;tblptru may be non-zero
  2933  001BE8                     	endif
  2934  001BE8                     	if	0	;tblptru may be non-zero
  2935  001BE8                     	endif
  2936  001BE8  0008               	tblrd		*
  2937  001BEA  50F5               	movf	tablat,w,c
  2938  001BEC  EC14  F00D         	call	_WriteDataXLCD
  2939  001BF0  0100               	movlb	0	; () banked
  2940  001BF2  4B62               	infsnz	putrsXLCD@buffer& (0+255),f,b
  2941  001BF4  2B63               	incf	(putrsXLCD@buffer+1)& (0+255),f,b
  2942  001BF6                     l2229:
  2943  001BF6  C062  FFF6         	movff	putrsXLCD@buffer,tblptrl
  2944  001BFA  C063  FFF7         	movff	putrsXLCD@buffer+1,tblptrh
  2945  001BFE                     	if	0	;tblptru may be non-zero
  2946  001BFE                     	endif
  2947  001BFE                     	if	0	;tblptru may be non-zero
  2948  001BFE                     	endif
  2949  001BFE  0008               	tblrd		*
  2950  001C00  50F5               	movf	tablat,w,c
  2951  001C02  0900               	iorlw	0
  2952  001C04  B4D8               	btfsc	status,2,c
  2953  001C06  0012               	return	
  2954  001C08  D7E6               	goto	l2223
  2955  001C0A                     __end_of_putrsXLCD:
  2956                           	opt stack 0
  2957                           tblptru	equ	0xFF8
  2958                           tblptrh	equ	0xFF7
  2959                           tblptrl	equ	0xFF6
  2960                           tablat	equ	0xFF5
  2961                           intcon	equ	0xFF2
  2962                           postinc0	equ	0xFEE
  2963                           wreg	equ	0xFE8
  2964                           postdec1	equ	0xFE5
  2965                           plusw1	equ	0xFE3
  2966                           fsr1l	equ	0xFE1
  2967                           indf2	equ	0xFDF
  2968                           plusw2	equ	0xFDB
  2969                           fsr2h	equ	0xFDA
  2970                           fsr2l	equ	0xFD9
  2971                           status	equ	0xFD8
  2972                           
  2973 ;; *************** function _WriteDataXLCD *****************
  2974 ;; Defined at:
  2975 ;;		line 16 in file "C:\Program Files (x86)\Microchip\xc8\v1.41\sources\pic18\plib\XLCD\writdata.c"
  2976 ;; Parameters:    Size  Location     Type
  2977 ;;  data            1    wreg     unsigned char 
  2978 ;; Auto vars:     Size  Location     Type
  2979 ;;  data            1    1[BANK0 ] unsigned char 
  2980 ;; Return value:  Size  Location     Type
  2981 ;;                  1    wreg      void 
  2982 ;; Registers used:
  2983 ;;		wreg, status,2, status,0, cstack
  2984 ;; Tracked objects:
  2985 ;;		On entry : 0/0
  2986 ;;		On exit  : 0/0
  2987 ;;		Unchanged: 0/0
  2988 ;; Data sizes:     COMRAM   BANK0   BANK1   BANK2   BANK3   BANK4   BANK5   BANK6   BANK7
  2989 ;;      Params:         0       0       0       0       0       0       0       0       0
  2990 ;;      Locals:         0       1       0       0       0       0       0       0       0
  2991 ;;      Temps:          0       0       0       0       0       0       0       0       0
  2992 ;;      Totals:         0       1       0       0       0       0       0       0       0
  2993 ;;Total ram usage:        1 bytes
  2994 ;; Hardware stack levels used:    1
  2995 ;; Hardware stack levels required when called:    8
  2996 ;; This function calls:
  2997 ;;		_DelayFor18TCY
  2998 ;; This function is called by:
  2999 ;;		_putrsXLCD
  3000 ;; This function uses a non-reentrant model
  3001 ;;
  3002                           
  3003                           	psect	text12
  3004  001A28                     __ptext12:
  3005                           	opt stack 0
  3006  001A28                     _WriteDataXLCD:
  3007                           	opt stack 20
  3008                           
  3009                           ;incstack = 0
  3010                           ;WriteDataXLCD@data stored from wreg
  3011  001A28  0100               	movlb	0	; () banked
  3012  001A2A  6F61               	movwf	WriteDataXLCD@data& (0+255),b
  3013  001A2C  0EF0               	movlw	240
  3014  001A2E  1693               	andwf	3987,f,c	;volatile
  3015  001A30  0EF0               	movlw	240
  3016  001A32  1681               	andwf	3969,f,c	;volatile
  3017  001A34  0100               	movlb	0	; () banked
  3018  001A36  3961               	swapf	WriteDataXLCD@data& (0+255),w,b
  3019  001A38  0B0F               	andlw	15
  3020  001A3A  0B0F               	andlw	15
  3021  001A3C  1281               	iorwf	3969,f,c	;volatile
  3022                           
  3023                           ; BSR set to: 0
  3024  001A3E  8A8A               	bsf	3978,5,c	;volatile
  3025                           
  3026                           ; BSR set to: 0
  3027  001A40  9C8A               	bcf	3978,6,c	;volatile
  3028                           
  3029                           ; BSR set to: 0
  3030  001A42  EC81  F00E         	call	_DelayFor18TCY	;wreg free
  3031  001A46  888A               	bsf	3978,4,c	;volatile
  3032  001A48  EC81  F00E         	call	_DelayFor18TCY	;wreg free
  3033  001A4C  988A               	bcf	3978,4,c	;volatile
  3034  001A4E  0EF0               	movlw	240
  3035  001A50  1681               	andwf	3969,f,c	;volatile
  3036  001A52  0100               	movlb	0	; () banked
  3037  001A54  5161               	movf	WriteDataXLCD@data& (0+255),w,b
  3038  001A56  0B0F               	andlw	15
  3039  001A58  1281               	iorwf	3969,f,c	;volatile
  3040                           
  3041                           ; BSR set to: 0
  3042  001A5A  EC81  F00E         	call	_DelayFor18TCY	;wreg free
  3043  001A5E  888A               	bsf	3978,4,c	;volatile
  3044  001A60  EC81  F00E         	call	_DelayFor18TCY	;wreg free
  3045  001A64  988A               	bcf	3978,4,c	;volatile
  3046  001A66  0E0F               	movlw	15
  3047  001A68  1293               	iorwf	3987,f,c	;volatile
  3048  001A6A  0012               	return	
  3049  001A6C                     __end_of_WriteDataXLCD:
  3050                           	opt stack 0
  3051                           tblptru	equ	0xFF8
  3052                           tblptrh	equ	0xFF7
  3053                           tblptrl	equ	0xFF6
  3054                           tablat	equ	0xFF5
  3055                           intcon	equ	0xFF2
  3056                           postinc0	equ	0xFEE
  3057                           wreg	equ	0xFE8
  3058                           postdec1	equ	0xFE5
  3059                           plusw1	equ	0xFE3
  3060                           fsr1l	equ	0xFE1
  3061                           indf2	equ	0xFDF
  3062                           plusw2	equ	0xFDB
  3063                           fsr2h	equ	0xFDA
  3064                           fsr2l	equ	0xFD9
  3065                           status	equ	0xFD8
  3066                           
  3067 ;; *************** function _BusyXLCD *****************
  3068 ;; Defined at:
  3069 ;;		line 11 in file "C:\Program Files (x86)\Microchip\xc8\v1.41\sources\pic18\plib\XLCD\busyxlcd.c"
  3070 ;; Parameters:    Size  Location     Type
  3071 ;;		None
  3072 ;; Auto vars:     Size  Location     Type
  3073 ;;		None
  3074 ;; Return value:  Size  Location     Type
  3075 ;;                  1    wreg      unsigned char 
  3076 ;; Registers used:
  3077 ;;		wreg, cstack
  3078 ;; Tracked objects:
  3079 ;;		On entry : 0/0
  3080 ;;		On exit  : 0/0
  3081 ;;		Unchanged: 0/0
  3082 ;; Data sizes:     COMRAM   BANK0   BANK1   BANK2   BANK3   BANK4   BANK5   BANK6   BANK7
  3083 ;;      Params:         0       0       0       0       0       0       0       0       0
  3084 ;;      Locals:         0       0       0       0       0       0       0       0       0
  3085 ;;      Temps:          0       0       0       0       0       0       0       0       0
  3086 ;;      Totals:         0       0       0       0       0       0       0       0       0
  3087 ;;Total ram usage:        0 bytes
  3088 ;; Hardware stack levels used:    1
  3089 ;; Hardware stack levels required when called:    8
  3090 ;; This function calls:
  3091 ;;		_DelayFor18TCY
  3092 ;; This function is called by:
  3093 ;;		_init_XLCD
  3094 ;;		_OpenXLCD
  3095 ;;		_putrsXLCD
  3096 ;; This function uses a non-reentrant model
  3097 ;;
  3098                           
  3099                           	psect	text13
  3100  001B60                     __ptext13:
  3101                           	opt stack 0
  3102  001B60                     _BusyXLCD:
  3103                           	opt stack 20
  3104                           
  3105                           ;incstack = 0
  3106  001B60  8C8A               	bsf	3978,6,c	;volatile
  3107  001B62  9A8A               	bcf	3978,5,c	;volatile
  3108  001B64  EC81  F00E         	call	_DelayFor18TCY	;wreg free
  3109  001B68  888A               	bsf	3978,4,c	;volatile
  3110  001B6A  EC81  F00E         	call	_DelayFor18TCY	;wreg free
  3111  001B6E  A681               	btfss	3969,3,c	;volatile
  3112  001B70  D00A               	goto	l280
  3113  001B72  988A               	bcf	3978,4,c	;volatile
  3114  001B74  EC81  F00E         	call	_DelayFor18TCY	;wreg free
  3115  001B78  888A               	bsf	3978,4,c	;volatile
  3116  001B7A  EC81  F00E         	call	_DelayFor18TCY	;wreg free
  3117  001B7E  988A               	bcf	3978,4,c	;volatile
  3118  001B80  9C8A               	bcf	3978,6,c	;volatile
  3119  001B82  0E01               	movlw	1
  3120  001B84  0012               	return	
  3121  001B86                     l280:
  3122  001B86  988A               	bcf	3978,4,c	;volatile
  3123  001B88  EC81  F00E         	call	_DelayFor18TCY	;wreg free
  3124  001B8C  888A               	bsf	3978,4,c	;volatile
  3125  001B8E  EC81  F00E         	call	_DelayFor18TCY	;wreg free
  3126  001B92  988A               	bcf	3978,4,c	;volatile
  3127  001B94  9C8A               	bcf	3978,6,c	;volatile
  3128  001B96  0E00               	movlw	0
  3129  001B98  0012               	return	
  3130  001B9A                     __end_of_BusyXLCD:
  3131                           	opt stack 0
  3132                           tblptru	equ	0xFF8
  3133                           tblptrh	equ	0xFF7
  3134                           tblptrl	equ	0xFF6
  3135                           tablat	equ	0xFF5
  3136                           intcon	equ	0xFF2
  3137                           postinc0	equ	0xFEE
  3138                           wreg	equ	0xFE8
  3139                           postdec1	equ	0xFE5
  3140                           plusw1	equ	0xFE3
  3141                           fsr1l	equ	0xFE1
  3142                           indf2	equ	0xFDF
  3143                           plusw2	equ	0xFDB
  3144                           fsr2h	equ	0xFDA
  3145                           fsr2l	equ	0xFD9
  3146                           status	equ	0xFD8
  3147                           
  3148 ;; *************** function _SetDDRamAddr *****************
  3149 ;; Defined at:
  3150 ;;		line 13 in file "C:\Program Files (x86)\Microchip\xc8\v1.41\sources\pic18\plib\XLCD\setddram.c"
  3151 ;; Parameters:    Size  Location     Type
  3152 ;;  DDaddr          1    wreg     unsigned char 
  3153 ;; Auto vars:     Size  Location     Type
  3154 ;;  DDaddr          1    4[BANK0 ] unsigned char 
  3155 ;; Return value:  Size  Location     Type
  3156 ;;                  1    wreg      void 
  3157 ;; Registers used:
  3158 ;;		wreg, status,2, status,0, cstack
  3159 ;; Tracked objects:
  3160 ;;		On entry : 0/0
  3161 ;;		On exit  : 0/0
  3162 ;;		Unchanged: 0/0
  3163 ;; Data sizes:     COMRAM   BANK0   BANK1   BANK2   BANK3   BANK4   BANK5   BANK6   BANK7
  3164 ;;      Params:         0       0       0       0       0       0       0       0       0
  3165 ;;      Locals:         0       1       0       0       0       0       0       0       0
  3166 ;;      Temps:          0       3       0       0       0       0       0       0       0
  3167 ;;      Totals:         0       4       0       0       0       0       0       0       0
  3168 ;;Total ram usage:        4 bytes
  3169 ;; Hardware stack levels used:    1
  3170 ;; Hardware stack levels required when called:    8
  3171 ;; This function calls:
  3172 ;;		_DelayFor18TCY
  3173 ;; This function is called by:
  3174 ;;		_controi_tank
  3175 ;;		_btnDireito
  3176 ;;		_btnEsquerdo
  3177 ;;		_btnAtira
  3178 ;;		_OpenXLCD
  3179 ;;		_obstaculo
  3180 ;;		_mostrarInfo
  3181 ;; This function uses a non-reentrant model
  3182 ;;
  3183                           
  3184                           	psect	text14
  3185  0018D0                     __ptext14:
  3186                           	opt stack 0
  3187  0018D0                     _SetDDRamAddr:
  3188                           	opt stack 20
  3189                           
  3190                           ;incstack = 0
  3191                           ;SetDDRamAddr@DDaddr stored from wreg
  3192  0018D0  0100               	movlb	0	; () banked
  3193  0018D2  6F64               	movwf	SetDDRamAddr@DDaddr& (0+255),b
  3194  0018D4  0EF0               	movlw	240
  3195  0018D6  1693               	andwf	3987,f,c	;volatile
  3196  0018D8  0EF0               	movlw	240
  3197  0018DA  1681               	andwf	3969,f,c	;volatile
  3198  0018DC  0100               	movlb	0	; () banked
  3199  0018DE  5164               	movf	SetDDRamAddr@DDaddr& (0+255),w,b
  3200  0018E0  0100               	movlb	0	; () banked
  3201  0018E2  6F61               	movwf	??_SetDDRamAddr& (0+255),b
  3202  0018E4  6B62               	clrf	(??_SetDDRamAddr+1)& (0+255),b
  3203  0018E6  0100               	movlb	0	; () banked
  3204  0018E8  8F61               	bsf	??_SetDDRamAddr& (0+255),7,b
  3205  0018EA  0E04               	movlw	4
  3206  0018EC  0100               	movlb	0	; () banked
  3207  0018EE  6F63               	movwf	(??_SetDDRamAddr+2)& (0+255),b
  3208  0018F0                     u905:
  3209  0018F0  0100               	movlb	0	; () banked
  3210  0018F2  3562               	rlcf	(??_SetDDRamAddr+1)& (0+255),w,b
  3211  0018F4  3362               	rrcf	(??_SetDDRamAddr+1)& (0+255),f,b
  3212  0018F6  3361               	rrcf	??_SetDDRamAddr& (0+255),f,b
  3213  0018F8  0100               	movlb	0	; () banked
  3214  0018FA  2F63               	decfsz	(??_SetDDRamAddr+2)& (0+255),f,b
  3215  0018FC  D7F9               	goto	u905
  3216  0018FE  0100               	movlb	0	; () banked
  3217  001900  5161               	movf	??_SetDDRamAddr& (0+255),w,b
  3218  001902  0B0F               	andlw	15
  3219  001904  1281               	iorwf	3969,f,c	;volatile
  3220                           
  3221                           ; BSR set to: 0
  3222  001906  9C8A               	bcf	3978,6,c	;volatile
  3223                           
  3224                           ; BSR set to: 0
  3225  001908  9A8A               	bcf	3978,5,c	;volatile
  3226                           
  3227                           ; BSR set to: 0
  3228  00190A  EC81  F00E         	call	_DelayFor18TCY	;wreg free
  3229  00190E  888A               	bsf	3978,4,c	;volatile
  3230  001910  EC81  F00E         	call	_DelayFor18TCY	;wreg free
  3231  001914  988A               	bcf	3978,4,c	;volatile
  3232  001916  0EF0               	movlw	240
  3233  001918  1681               	andwf	3969,f,c	;volatile
  3234  00191A  0100               	movlb	0	; () banked
  3235  00191C  5164               	movf	SetDDRamAddr@DDaddr& (0+255),w,b
  3236  00191E  0B0F               	andlw	15
  3237  001920  1281               	iorwf	3969,f,c	;volatile
  3238                           
  3239                           ; BSR set to: 0
  3240  001922  EC81  F00E         	call	_DelayFor18TCY	;wreg free
  3241  001926  888A               	bsf	3978,4,c	;volatile
  3242  001928  EC81  F00E         	call	_DelayFor18TCY	;wreg free
  3243  00192C  988A               	bcf	3978,4,c	;volatile
  3244  00192E  0E0F               	movlw	15
  3245  001930  1293               	iorwf	3987,f,c	;volatile
  3246  001932  0012               	return	
  3247  001934                     __end_of_SetDDRamAddr:
  3248                           	opt stack 0
  3249                           tblptru	equ	0xFF8
  3250                           tblptrh	equ	0xFF7
  3251                           tblptrl	equ	0xFF6
  3252                           tablat	equ	0xFF5
  3253                           intcon	equ	0xFF2
  3254                           postinc0	equ	0xFEE
  3255                           wreg	equ	0xFE8
  3256                           postdec1	equ	0xFE5
  3257                           plusw1	equ	0xFE3
  3258                           fsr1l	equ	0xFE1
  3259                           indf2	equ	0xFDF
  3260                           plusw2	equ	0xFDB
  3261                           fsr2h	equ	0xFDA
  3262                           fsr2l	equ	0xFD9
  3263                           status	equ	0xFD8
  3264                           
  3265 ;; *************** function _DelayFor18TCY *****************
  3266 ;; Defined at:
  3267 ;;		line 9 in file "display.c"
  3268 ;; Parameters:    Size  Location     Type
  3269 ;;		None
  3270 ;; Auto vars:     Size  Location     Type
  3271 ;;		None
  3272 ;; Return value:  Size  Location     Type
  3273 ;;                  1    wreg      void 
  3274 ;; Registers used:
  3275 ;;		wreg, cstack
  3276 ;; Tracked objects:
  3277 ;;		On entry : 0/0
  3278 ;;		On exit  : 0/0
  3279 ;;		Unchanged: 0/0
  3280 ;; Data sizes:     COMRAM   BANK0   BANK1   BANK2   BANK3   BANK4   BANK5   BANK6   BANK7
  3281 ;;      Params:         0       0       0       0       0       0       0       0       0
  3282 ;;      Locals:         0       0       0       0       0       0       0       0       0
  3283 ;;      Temps:          0       0       0       0       0       0       0       0       0
  3284 ;;      Totals:         0       0       0       0       0       0       0       0       0
  3285 ;;Total ram usage:        0 bytes
  3286 ;; Hardware stack levels used:    1
  3287 ;; Hardware stack levels required when called:    7
  3288 ;; This function calls:
  3289 ;;		_Delay10TCYx
  3290 ;; This function is called by:
  3291 ;;		_BusyXLCD
  3292 ;;		_SetDDRamAddr
  3293 ;;		_WriteCmdXLCD
  3294 ;;		_WriteDataXLCD
  3295 ;; This function uses a non-reentrant model
  3296 ;;
  3297                           
  3298                           	psect	text15
  3299  001D02                     __ptext15:
  3300                           	opt stack 0
  3301  001D02                     _DelayFor18TCY:
  3302                           	opt stack 21
  3303                           
  3304                           ;display.c: 10: Delay10TCYx(120);
  3305                           
  3306                           ;incstack = 0
  3307  001D02  0E78               	movlw	120
  3308  001D04  EC6B  F00E         	call	_Delay10TCYx
  3309  001D08  0012               	return		;funcret
  3310  001D0A                     __end_of_DelayFor18TCY:
  3311                           	opt stack 0
  3312                           tblptru	equ	0xFF8
  3313                           tblptrh	equ	0xFF7
  3314                           tblptrl	equ	0xFF6
  3315                           tablat	equ	0xFF5
  3316                           intcon	equ	0xFF2
  3317                           postinc0	equ	0xFEE
  3318                           wreg	equ	0xFE8
  3319                           postdec1	equ	0xFE5
  3320                           plusw1	equ	0xFE3
  3321                           fsr1l	equ	0xFE1
  3322                           indf2	equ	0xFDF
  3323                           plusw2	equ	0xFDB
  3324                           fsr2h	equ	0xFDA
  3325                           fsr2l	equ	0xFD9
  3326                           status	equ	0xFD8
  3327                           
  3328 ;; *************** function _Delay10TCYx *****************
  3329 ;; Defined at:
  3330 ;;		line 8 in file "C:\Program Files (x86)\Microchip\xc8\v1.41\sources\pic18\d10tcyx.c"
  3331 ;; Parameters:    Size  Location     Type
  3332 ;;  unit            1    wreg     unsigned char 
  3333 ;; Auto vars:     Size  Location     Type
  3334 ;;  unit            1    0[BANK0 ] unsigned char 
  3335 ;; Return value:  Size  Location     Type
  3336 ;;                  1    wreg      void 
  3337 ;; Registers used:
  3338 ;;		wreg
  3339 ;; Tracked objects:
  3340 ;;		On entry : 0/0
  3341 ;;		On exit  : 0/0
  3342 ;;		Unchanged: 0/0
  3343 ;; Data sizes:     COMRAM   BANK0   BANK1   BANK2   BANK3   BANK4   BANK5   BANK6   BANK7
  3344 ;;      Params:         0       0       0       0       0       0       0       0       0
  3345 ;;      Locals:         0       1       0       0       0       0       0       0       0
  3346 ;;      Temps:          0       0       0       0       0       0       0       0       0
  3347 ;;      Totals:         0       1       0       0       0       0       0       0       0
  3348 ;;Total ram usage:        1 bytes
  3349 ;; Hardware stack levels used:    1
  3350 ;; Hardware stack levels required when called:    6
  3351 ;; This function calls:
  3352 ;;		Nothing
  3353 ;; This function is called by:
  3354 ;;		_DelayFor18TCY
  3355 ;; This function uses a non-reentrant model
  3356 ;;
  3357                           
  3358                           	psect	text16
  3359  001CD6                     __ptext16:
  3360                           	opt stack 0
  3361  001CD6                     _Delay10TCYx:
  3362                           	opt stack 21
  3363                           
  3364                           ;incstack = 0
  3365                           ;Delay10TCYx@unit stored from wreg
  3366  001CD6  0100               	movlb	0	; () banked
  3367  001CD8  6F60               	movwf	Delay10TCYx@unit& (0+255),b
  3368  001CDA  0E03               	movlw	3
  3369  001CDC                     u1807:
  3370  001CDC  2EE8               	decfsz	wreg,f,c
  3371  001CDE  D7FE               	bra	u1807
  3372  001CE0  F000               	nop	
  3373  001CE2  0100               	movlb	0	; () banked
  3374  001CE4  2F60               	decfsz	Delay10TCYx@unit& (0+255),f,b
  3375  001CE6  D7F9               	goto	l2029
  3376  001CE8  0012               	return	
  3377  001CEA                     __end_of_Delay10TCYx:
  3378                           	opt stack 0
  3379                           tblptru	equ	0xFF8
  3380                           tblptrh	equ	0xFF7
  3381                           tblptrl	equ	0xFF6
  3382                           tablat	equ	0xFF5
  3383                           intcon	equ	0xFF2
  3384                           postinc0	equ	0xFEE
  3385                           wreg	equ	0xFE8
  3386                           postdec1	equ	0xFE5
  3387                           plusw1	equ	0xFE3
  3388                           fsr1l	equ	0xFE1
  3389                           indf2	equ	0xFDF
  3390                           plusw2	equ	0xFDB
  3391                           fsr2h	equ	0xFDA
  3392                           fsr2l	equ	0xFD9
  3393                           status	equ	0xFD8
  3394                           
  3395 ;; *************** function _Delay10KTCYx *****************
  3396 ;; Defined at:
  3397 ;;		line 8 in file "C:\Program Files (x86)\Microchip\xc8\v1.41\sources\pic18\d10ktcyx.c"
  3398 ;; Parameters:    Size  Location     Type
  3399 ;;  unit            1    wreg     unsigned char 
  3400 ;; Auto vars:     Size  Location     Type
  3401 ;;  unit            1    1[BANK0 ] unsigned char 
  3402 ;; Return value:  Size  Location     Type
  3403 ;;                  1    wreg      void 
  3404 ;; Registers used:
  3405 ;;		wreg
  3406 ;; Tracked objects:
  3407 ;;		On entry : 0/0
  3408 ;;		On exit  : 0/0
  3409 ;;		Unchanged: 0/0
  3410 ;; Data sizes:     COMRAM   BANK0   BANK1   BANK2   BANK3   BANK4   BANK5   BANK6   BANK7
  3411 ;;      Params:         0       0       0       0       0       0       0       0       0
  3412 ;;      Locals:         0       1       0       0       0       0       0       0       0
  3413 ;;      Temps:          0       1       0       0       0       0       0       0       0
  3414 ;;      Totals:         0       2       0       0       0       0       0       0       0
  3415 ;;Total ram usage:        2 bytes
  3416 ;; Hardware stack levels used:    1
  3417 ;; Hardware stack levels required when called:    6
  3418 ;; This function calls:
  3419 ;;		Nothing
  3420 ;; This function is called by:
  3421 ;;		_btnAtira
  3422 ;;		_OpenXLCD
  3423 ;;		_obstaculo
  3424 ;; This function uses a non-reentrant model
  3425 ;;
  3426                           
  3427                           	psect	text17
  3428  001C8E                     __ptext17:
  3429                           	opt stack 0
  3430  001C8E                     _Delay10KTCYx:
  3431                           	opt stack 22
  3432                           
  3433                           ; BSR set to: 0
  3434                           ;incstack = 0
  3435                           ;Delay10KTCYx@unit stored from wreg
  3436  001C8E  0100               	movlb	0	; () banked
  3437  001C90  6F61               	movwf	Delay10KTCYx@unit& (0+255),b
  3438  001C92  0E0D               	movlw	13
  3439  001C94  0100               	movlb	0	; () banked
  3440  001C96  6F60               	movwf	??_Delay10KTCYx& (0+255),b
  3441  001C98  0EFB               	movlw	251
  3442  001C9A                     u1817:
  3443  001C9A  2EE8               	decfsz	wreg,f,c
  3444  001C9C  D7FE               	bra	u1817
  3445  001C9E  2F60               	decfsz	??_Delay10KTCYx& (0+255),f,b
  3446  001CA0  D7FC               	bra	u1817
  3447  001CA2  D000               	nop2	
  3448  001CA4  0100               	movlb	0	; () banked
  3449  001CA6  2F61               	decfsz	Delay10KTCYx@unit& (0+255),f,b
  3450  001CA8  D7F4               	goto	l2069
  3451  001CAA  0012               	return	
  3452  001CAC                     __end_of_Delay10KTCYx:
  3453                           	opt stack 0
  3454                           tblptru	equ	0xFF8
  3455                           tblptrh	equ	0xFF7
  3456                           tblptrl	equ	0xFF6
  3457                           tablat	equ	0xFF5
  3458                           intcon	equ	0xFF2
  3459                           postinc0	equ	0xFEE
  3460                           wreg	equ	0xFE8
  3461                           postdec1	equ	0xFE5
  3462                           plusw1	equ	0xFE3
  3463                           fsr1l	equ	0xFE1
  3464                           indf2	equ	0xFDF
  3465                           plusw2	equ	0xFDB
  3466                           fsr2h	equ	0xFDA
  3467                           fsr2l	equ	0xFD9
  3468                           status	equ	0xFD8
  3469                           
  3470 ;; *************** function _InterruptPic *****************
  3471 ;; Defined at:
  3472 ;;		line 49 in file "main_teste.c"
  3473 ;; Parameters:    Size  Location     Type
  3474 ;;		None
  3475 ;; Auto vars:     Size  Location     Type
  3476 ;;		None
  3477 ;; Return value:  Size  Location     Type
  3478 ;;                  1    wreg      void 
  3479 ;; Registers used:
  3480 ;;		wreg, fsr1l, fsr1h, fsr2l, fsr2h, status,2, status,0, tblptrl, tblptrh, tblptru, cstack
  3481 ;; Tracked objects:
  3482 ;;		On entry : 0/0
  3483 ;;		On exit  : 0/0
  3484 ;;		Unchanged: 0/0
  3485 ;; Data sizes:     COMRAM   BANK0   BANK1   BANK2   BANK3   BANK4   BANK5   BANK6   BANK7
  3486 ;;      Params:         0       0       0       0       0       0       0       0       0
  3487 ;;      Locals:         0       0       0       0       0       0       0       0       0
  3488 ;;      Temps:         14       0       0       0       0       0       0       0       0
  3489 ;;      Totals:        14       0       0       0       0       0       0       0       0
  3490 ;;Total ram usage:       14 bytes
  3491 ;; Hardware stack levels used:    1
  3492 ;; Hardware stack levels required when called:    5
  3493 ;; This function calls:
  3494 ;;		_rotina_segundo
  3495 ;;		i2_btnAtira
  3496 ;;		i2_btnDireito
  3497 ;;		i2_btnEsquerdo
  3498 ;; This function is called by:
  3499 ;;		Interrupt level 2
  3500 ;; This function uses a non-reentrant model
  3501 ;;
  3502                           
  3503                           	psect	intcode
  3504  000008                     __pintcode:
  3505                           	opt stack 0
  3506  000008                     _InterruptPic:
  3507                           	opt stack 20
  3508                           
  3509                           ; BSR set to: 0
  3510                           ;incstack = 0
  3511  000008  825E               	bsf	btemp,1,c	;set compiler interrupt flag (level 2)
  3512  00000A  ED62  F00B         	call	int_func,f	;refresh shadow registers
  3513                           tblptru	equ	0xFF8
  3514                           tblptrh	equ	0xFF7
  3515                           tblptrl	equ	0xFF6
  3516                           tablat	equ	0xFF5
  3517                           intcon	equ	0xFF2
  3518                           postinc0	equ	0xFEE
  3519                           wreg	equ	0xFE8
  3520                           postdec1	equ	0xFE5
  3521                           plusw1	equ	0xFE3
  3522                           fsr1l	equ	0xFE1
  3523                           indf2	equ	0xFDF
  3524                           plusw2	equ	0xFDB
  3525                           fsr2h	equ	0xFDA
  3526                           fsr2l	equ	0xFD9
  3527                           status	equ	0xFD8
  3528                           
  3529                           	psect	intcode_body
  3530  0016C4                     __pintcode_body:
  3531                           	opt stack 20
  3532  0016C4                     int_func:
  3533                           	opt stack 20
  3534  0016C4  0006               	pop		; remove dummy address from shadow register refresh
  3535  0016C6  CFFA F04E          	movff	pclath,??_InterruptPic
  3536  0016CA  CFFB F04F          	movff	pclatu,??_InterruptPic+1
  3537  0016CE  CFE9 F050          	movff	fsr0l,??_InterruptPic+2
  3538  0016D2  CFEA F051          	movff	fsr0h,??_InterruptPic+3
  3539  0016D6  CFE1 F052          	movff	fsr1l,??_InterruptPic+4
  3540  0016DA  CFE2 F053          	movff	fsr1h,??_InterruptPic+5
  3541  0016DE  CFD9 F054          	movff	fsr2l,??_InterruptPic+6
  3542  0016E2  CFDA F055          	movff	fsr2h,??_InterruptPic+7
  3543  0016E6  CFF3 F056          	movff	prodl,??_InterruptPic+8
  3544  0016EA  CFF4 F057          	movff	prodh,??_InterruptPic+9
  3545  0016EE  CFF6 F058          	movff	tblptrl,??_InterruptPic+10
  3546  0016F2  CFF7 F059          	movff	tblptrh,??_InterruptPic+11
  3547  0016F6  CFF8 F05A          	movff	tblptru,??_InterruptPic+12
  3548  0016FA  CFF5 F05B          	movff	tablat,??_InterruptPic+13
  3549                           
  3550                           ;main_teste.c: 50: if (TMR0IF) {
  3551  0016FE  A4F2               	btfss	intcon,2,c	;volatile
  3552  001700  D028               	goto	i2l71
  3553                           
  3554                           ;main_teste.c: 51: x++;
  3555  001702  0100               	movlb	0	; () banked
  3556  001704  4BF5               	infsnz	_x& (0+255),f,b
  3557  001706  2BF6               	incf	(_x+1)& (0+255),f,b
  3558                           
  3559                           ; BSR set to: 0
  3560                           ;main_teste.c: 52: TMR0 = 46005;
  3561  001708  0EB3               	movlw	179
  3562  00170A  6ED7               	movwf	4055,c	;volatile
  3563  00170C  0EB5               	movlw	181
  3564  00170E  6ED6               	movwf	4054,c	;volatile
  3565                           
  3566                           ; BSR set to: 0
  3567                           ;main_teste.c: 53: INTCONbits.TMR0IF = 0;
  3568  001710  94F2               	bcf	intcon,2,c	;volatile
  3569                           
  3570                           ; BSR set to: 0
  3571                           ;main_teste.c: 54: if (PORTDbits.RD3 == 1) {
  3572  001712  A683               	btfss	3971,3,c	;volatile
  3573  001714  D004               	goto	i2l2915
  3574  001716                     i2l59:
  3575  001716  B683               	btfsc	3971,3,c	;volatile
  3576  001718  D7FE               	goto	i2l59
  3577                           
  3578                           ;main_teste.c: 56: btnDireito();
  3579  00171A  EC84  F00A         	call	i2_btnDireito	;wreg free
  3580  00171E                     i2l2915:
  3581                           
  3582                           ;main_teste.c: 57: }
  3583                           ;main_teste.c: 58: if (PORTDbits.RD1 == 1) {
  3584  00171E  A283               	btfss	3971,1,c	;volatile
  3585  001720  D004               	goto	i2l2921
  3586  001722                     i2l63:
  3587  001722  B283               	btfsc	3971,1,c	;volatile
  3588  001724  D7FE               	goto	i2l63
  3589                           
  3590                           ;main_teste.c: 60: btnEsquerdo();
  3591  001726  ECA4  F009         	call	i2_btnEsquerdo	;wreg free
  3592  00172A                     i2l2921:
  3593                           
  3594                           ;main_teste.c: 61: }
  3595                           ;main_teste.c: 63: if (PORTDbits.RD2 == 1) {
  3596  00172A  A483               	btfss	3971,2,c	;volatile
  3597  00172C  D004               	goto	i2l2927
  3598  00172E                     i2l67:
  3599  00172E  B483               	btfsc	3971,2,c	;volatile
  3600  001730  D7FE               	goto	i2l67
  3601                           
  3602                           ;main_teste.c: 65: btnAtira();
  3603  001732  ECFF  F005         	call	i2_btnAtira	;wreg free
  3604  001736                     i2l2927:
  3605                           
  3606                           ;main_teste.c: 67: }
  3607                           ;main_teste.c: 69: if (x == 10) {
  3608  001736  0E0A               	movlw	10
  3609  001738  0100               	movlb	0	; () banked
  3610  00173A  19F5               	xorwf	_x& (0+255),w,b
  3611  00173C  0100               	movlb	0	; () banked
  3612  00173E  11F6               	iorwf	(_x+1)& (0+255),w,b
  3613  001740  A4D8               	btfss	status,2,c
  3614  001742  D007               	goto	i2l71
  3615                           
  3616                           ; BSR set to: 0
  3617                           ;main_teste.c: 70: x = 0;
  3618  001744  0E00               	movlw	0
  3619  001746  0100               	movlb	0	; () banked
  3620  001748  6FF6               	movwf	(_x+1)& (0+255),b
  3621  00174A  0E00               	movlw	0
  3622  00174C  6FF5               	movwf	_x& (0+255),b
  3623                           
  3624                           ; BSR set to: 0
  3625                           ;main_teste.c: 71: rotina_segundo();
  3626  00174E  EC89  F00E         	call	_rotina_segundo	;wreg free
  3627  001752                     i2l71:
  3628  001752  C05B  FFF5         	movff	??_InterruptPic+13,tablat
  3629  001756  C05A  FFF8         	movff	??_InterruptPic+12,tblptru
  3630  00175A  C059  FFF7         	movff	??_InterruptPic+11,tblptrh
  3631  00175E  C058  FFF6         	movff	??_InterruptPic+10,tblptrl
  3632  001762  C057  FFF4         	movff	??_InterruptPic+9,prodh
  3633  001766  C056  FFF3         	movff	??_InterruptPic+8,prodl
  3634  00176A  C055  FFDA         	movff	??_InterruptPic+7,fsr2h
  3635  00176E  C054  FFD9         	movff	??_InterruptPic+6,fsr2l
  3636  001772  C053  FFE2         	movff	??_InterruptPic+5,fsr1h
  3637  001776  C052  FFE1         	movff	??_InterruptPic+4,fsr1l
  3638  00177A  C051  FFEA         	movff	??_InterruptPic+3,fsr0h
  3639  00177E  C050  FFE9         	movff	??_InterruptPic+2,fsr0l
  3640  001782  C04F  FFFB         	movff	??_InterruptPic+1,pclatu
  3641  001786  C04E  FFFA         	movff	??_InterruptPic,pclath
  3642  00178A  925E               	bcf	btemp,1,c	;clear compiler interrupt flag (level 2)
  3643  00178C  0011               	retfie		f
  3644  00178E                     __end_of_InterruptPic:
  3645                           	opt stack 0
  3646                           pclatu	equ	0xFFB
  3647                           pclath	equ	0xFFA
  3648                           tblptru	equ	0xFF8
  3649                           tblptrh	equ	0xFF7
  3650                           tblptrl	equ	0xFF6
  3651                           tablat	equ	0xFF5
  3652                           prodh	equ	0xFF4
  3653                           prodl	equ	0xFF3
  3654                           intcon	equ	0xFF2
  3655                           postinc0	equ	0xFEE
  3656                           fsr0h	equ	0xFEA
  3657                           fsr0l	equ	0xFE9
  3658                           wreg	equ	0xFE8
  3659                           postdec1	equ	0xFE5
  3660                           plusw1	equ	0xFE3
  3661                           fsr1h	equ	0xFE2
  3662                           fsr1l	equ	0xFE1
  3663                           indf2	equ	0xFDF
  3664                           plusw2	equ	0xFDB
  3665                           fsr2h	equ	0xFDA
  3666                           fsr2l	equ	0xFD9
  3667                           status	equ	0xFD8
  3668                           
  3669 ;; *************** function i2_btnEsquerdo *****************
  3670 ;; Defined at:
  3671 ;;		line 147 in file "comandos.c"
  3672 ;; Parameters:    Size  Location     Type
  3673 ;;		None
  3674 ;; Auto vars:     Size  Location     Type
  3675 ;;		None
  3676 ;; Return value:  Size  Location     Type
  3677 ;;                  1    wreg      void 
  3678 ;; Registers used:
  3679 ;;		wreg, status,2, status,0, tblptrl, tblptrh, tblptru, cstack
  3680 ;; Tracked objects:
  3681 ;;		On entry : 0/0
  3682 ;;		On exit  : 0/0
  3683 ;;		Unchanged: 0/0
  3684 ;; Data sizes:     COMRAM   BANK0   BANK1   BANK2   BANK3   BANK4   BANK5   BANK6   BANK7
  3685 ;;      Params:         0       0       0       0       0       0       0       0       0
  3686 ;;      Locals:         0       0       0       0       0       0       0       0       0
  3687 ;;      Temps:          0       0       0       0       0       0       0       0       0
  3688 ;;      Totals:         0       0       0       0       0       0       0       0       0
  3689 ;;Total ram usage:        0 bytes
  3690 ;; Hardware stack levels used:    1
  3691 ;; Hardware stack levels required when called:    4
  3692 ;; This function calls:
  3693 ;;		i2_SetDDRamAddr
  3694 ;;		i2_putrsXLCD
  3695 ;; This function is called by:
  3696 ;;		_InterruptPic
  3697 ;; This function uses a non-reentrant model
  3698 ;;
  3699                           
  3700                           	psect	text19
  3701  001348                     __ptext19:
  3702                           	opt stack 0
  3703  001348                     i2_btnEsquerdo:
  3704                           	opt stack 20
  3705                           
  3706                           ;comandos.c: 149: if (i == 0) {
  3707                           
  3708                           ;incstack = 0
  3709  001348  0100               	movlb	0	; () banked
  3710  00134A  51EF               	movf	_i& (0+255),w,b
  3711  00134C  0100               	movlb	0	; () banked
  3712  00134E  11F0               	iorwf	(_i+1)& (0+255),w,b
  3713  001350  A4D8               	btfss	status,2,c
  3714  001352  D02D               	goto	i2l2721
  3715                           
  3716                           ; BSR set to: 0
  3717                           ;comandos.c: 150: SetDDRamAddr(0x80);
  3718  001354  0E80               	movlw	128
  3719  001356  ECC9  F00C         	call	i2_SetDDRamAddr
  3720                           
  3721                           ;comandos.c: 151: putrsXLCD(" ");
  3722  00135A  0E06               	movlw	low STR_1
  3723  00135C  6E03               	movwf	i2putrsXLCD@buffer,c
  3724  00135E  0E08               	movlw	high STR_1
  3725  001360  6E04               	movwf	i2putrsXLCD@buffer+1,c
  3726  001362  EC05  F00E         	call	i2_putrsXLCD	;wreg free
  3727                           
  3728                           ;comandos.c: 152: SetDDRamAddr(0xC0);
  3729  001366  0EC0               	movlw	192
  3730  001368  ECC9  F00C         	call	i2_SetDDRamAddr
  3731                           
  3732                           ;comandos.c: 153: putrsXLCD(" ");
  3733  00136C  0E06               	movlw	low STR_1
  3734  00136E  6E03               	movwf	i2putrsXLCD@buffer,c
  3735  001370  0E08               	movlw	high STR_1
  3736  001372  6E04               	movwf	i2putrsXLCD@buffer+1,c
  3737  001374  EC05  F00E         	call	i2_putrsXLCD	;wreg free
  3738                           
  3739                           ;comandos.c: 154: SetDDRamAddr(0x94);
  3740  001378  0E94               	movlw	148
  3741  00137A  ECC9  F00C         	call	i2_SetDDRamAddr
  3742                           
  3743                           ;comandos.c: 155: putrsXLCD(" ");
  3744  00137E  0E06               	movlw	low STR_1
  3745  001380  6E03               	movwf	i2putrsXLCD@buffer,c
  3746  001382  0E08               	movlw	high STR_1
  3747  001384  6E04               	movwf	i2putrsXLCD@buffer+1,c
  3748  001386  EC05  F00E         	call	i2_putrsXLCD	;wreg free
  3749                           
  3750                           ;comandos.c: 156: SetDDRamAddr(0xD4);
  3751  00138A  0ED4               	movlw	212
  3752  00138C  ECC9  F00C         	call	i2_SetDDRamAddr
  3753                           
  3754                           ;comandos.c: 157: putrsXLCD(" ");
  3755  001390  0E06               	movlw	low STR_1
  3756  001392  6E03               	movwf	i2putrsXLCD@buffer,c
  3757  001394  0E08               	movlw	high STR_1
  3758  001396  6E04               	movwf	i2putrsXLCD@buffer+1,c
  3759  001398  EC05  F00E         	call	i2_putrsXLCD	;wreg free
  3760                           
  3761                           ;comandos.c: 158: SetDDRamAddr(0x80);
  3762  00139C  0E80               	movlw	128
  3763  00139E  ECC9  F00C         	call	i2_SetDDRamAddr
  3764                           
  3765                           ;comandos.c: 159: putrsXLCD("D");
  3766  0013A2  0E0A               	movlw	low STR_5
  3767  0013A4  6E03               	movwf	i2putrsXLCD@buffer,c
  3768  0013A6  0E08               	movlw	high STR_5
  3769  0013A8  6E04               	movwf	i2putrsXLCD@buffer+1,c
  3770  0013AA  EC05  F00E         	call	i2_putrsXLCD	;wreg free
  3771  0013AE                     i2l2721:
  3772                           
  3773                           ;comandos.c: 160: }
  3774                           ;comandos.c: 161: if (i == 1) {
  3775  0013AE  0100               	movlb	0	; () banked
  3776  0013B0  05EF               	decf	_i& (0+255),w,b
  3777  0013B2  0100               	movlb	0	; () banked
  3778  0013B4  11F0               	iorwf	(_i+1)& (0+255),w,b
  3779  0013B6  A4D8               	btfss	status,2,c
  3780  0013B8  D02D               	goto	i2l2737
  3781                           
  3782                           ; BSR set to: 0
  3783                           ;comandos.c: 162: SetDDRamAddr(0x80);
  3784  0013BA  0E80               	movlw	128
  3785  0013BC  ECC9  F00C         	call	i2_SetDDRamAddr
  3786                           
  3787                           ;comandos.c: 163: putrsXLCD(" ");
  3788  0013C0  0E06               	movlw	low STR_1
  3789  0013C2  6E03               	movwf	i2putrsXLCD@buffer,c
  3790  0013C4  0E08               	movlw	high STR_1
  3791  0013C6  6E04               	movwf	i2putrsXLCD@buffer+1,c
  3792  0013C8  EC05  F00E         	call	i2_putrsXLCD	;wreg free
  3793                           
  3794                           ;comandos.c: 164: SetDDRamAddr(0xC0);
  3795  0013CC  0EC0               	movlw	192
  3796  0013CE  ECC9  F00C         	call	i2_SetDDRamAddr
  3797                           
  3798                           ;comandos.c: 165: putrsXLCD(" ");
  3799  0013D2  0E06               	movlw	low STR_1
  3800  0013D4  6E03               	movwf	i2putrsXLCD@buffer,c
  3801  0013D6  0E08               	movlw	high STR_1
  3802  0013D8  6E04               	movwf	i2putrsXLCD@buffer+1,c
  3803  0013DA  EC05  F00E         	call	i2_putrsXLCD	;wreg free
  3804                           
  3805                           ;comandos.c: 166: SetDDRamAddr(0x94);
  3806  0013DE  0E94               	movlw	148
  3807  0013E0  ECC9  F00C         	call	i2_SetDDRamAddr
  3808                           
  3809                           ;comandos.c: 167: putrsXLCD(" ");
  3810  0013E4  0E06               	movlw	low STR_1
  3811  0013E6  6E03               	movwf	i2putrsXLCD@buffer,c
  3812  0013E8  0E08               	movlw	high STR_1
  3813  0013EA  6E04               	movwf	i2putrsXLCD@buffer+1,c
  3814  0013EC  EC05  F00E         	call	i2_putrsXLCD	;wreg free
  3815                           
  3816                           ;comandos.c: 168: SetDDRamAddr(0xD4);
  3817  0013F0  0ED4               	movlw	212
  3818  0013F2  ECC9  F00C         	call	i2_SetDDRamAddr
  3819                           
  3820                           ;comandos.c: 169: putrsXLCD(" ");
  3821  0013F6  0E06               	movlw	low STR_1
  3822  0013F8  6E03               	movwf	i2putrsXLCD@buffer,c
  3823  0013FA  0E08               	movlw	high STR_1
  3824  0013FC  6E04               	movwf	i2putrsXLCD@buffer+1,c
  3825  0013FE  EC05  F00E         	call	i2_putrsXLCD	;wreg free
  3826                           
  3827                           ;comandos.c: 170: SetDDRamAddr(0x80);
  3828  001402  0E80               	movlw	128
  3829  001404  ECC9  F00C         	call	i2_SetDDRamAddr
  3830                           
  3831                           ;comandos.c: 171: putrsXLCD("D");
  3832  001408  0E0A               	movlw	low STR_5
  3833  00140A  6E03               	movwf	i2putrsXLCD@buffer,c
  3834  00140C  0E08               	movlw	high STR_5
  3835  00140E  6E04               	movwf	i2putrsXLCD@buffer+1,c
  3836  001410  EC05  F00E         	call	i2_putrsXLCD	;wreg free
  3837  001414                     i2l2737:
  3838                           
  3839                           ;comandos.c: 172: }
  3840                           ;comandos.c: 173: if (i == 2) {
  3841  001414  0E02               	movlw	2
  3842  001416  0100               	movlb	0	; () banked
  3843  001418  19EF               	xorwf	_i& (0+255),w,b
  3844  00141A  0100               	movlb	0	; () banked
  3845  00141C  11F0               	iorwf	(_i+1)& (0+255),w,b
  3846  00141E  A4D8               	btfss	status,2,c
  3847  001420  D02D               	goto	i2l2753
  3848                           
  3849                           ; BSR set to: 0
  3850                           ;comandos.c: 174: SetDDRamAddr(0x80);
  3851  001422  0E80               	movlw	128
  3852  001424  ECC9  F00C         	call	i2_SetDDRamAddr
  3853                           
  3854                           ;comandos.c: 175: putrsXLCD(" ");
  3855  001428  0E06               	movlw	low STR_1
  3856  00142A  6E03               	movwf	i2putrsXLCD@buffer,c
  3857  00142C  0E08               	movlw	high STR_1
  3858  00142E  6E04               	movwf	i2putrsXLCD@buffer+1,c
  3859  001430  EC05  F00E         	call	i2_putrsXLCD	;wreg free
  3860                           
  3861                           ;comandos.c: 176: SetDDRamAddr(0xC0);
  3862  001434  0EC0               	movlw	192
  3863  001436  ECC9  F00C         	call	i2_SetDDRamAddr
  3864                           
  3865                           ;comandos.c: 177: putrsXLCD(" ");
  3866  00143A  0E06               	movlw	low STR_1
  3867  00143C  6E03               	movwf	i2putrsXLCD@buffer,c
  3868  00143E  0E08               	movlw	high STR_1
  3869  001440  6E04               	movwf	i2putrsXLCD@buffer+1,c
  3870  001442  EC05  F00E         	call	i2_putrsXLCD	;wreg free
  3871                           
  3872                           ;comandos.c: 178: SetDDRamAddr(0x94);
  3873  001446  0E94               	movlw	148
  3874  001448  ECC9  F00C         	call	i2_SetDDRamAddr
  3875                           
  3876                           ;comandos.c: 179: putrsXLCD(" ");
  3877  00144C  0E06               	movlw	low STR_1
  3878  00144E  6E03               	movwf	i2putrsXLCD@buffer,c
  3879  001450  0E08               	movlw	high STR_1
  3880  001452  6E04               	movwf	i2putrsXLCD@buffer+1,c
  3881  001454  EC05  F00E         	call	i2_putrsXLCD	;wreg free
  3882                           
  3883                           ;comandos.c: 180: SetDDRamAddr(0xD4);
  3884  001458  0ED4               	movlw	212
  3885  00145A  ECC9  F00C         	call	i2_SetDDRamAddr
  3886                           
  3887                           ;comandos.c: 181: putrsXLCD(" ");
  3888  00145E  0E06               	movlw	low STR_1
  3889  001460  6E03               	movwf	i2putrsXLCD@buffer,c
  3890  001462  0E08               	movlw	high STR_1
  3891  001464  6E04               	movwf	i2putrsXLCD@buffer+1,c
  3892  001466  EC05  F00E         	call	i2_putrsXLCD	;wreg free
  3893                           
  3894                           ;comandos.c: 182: SetDDRamAddr(0xC0);
  3895  00146A  0EC0               	movlw	192
  3896  00146C  ECC9  F00C         	call	i2_SetDDRamAddr
  3897                           
  3898                           ;comandos.c: 183: putrsXLCD("D");
  3899  001470  0E0A               	movlw	low STR_5
  3900  001472  6E03               	movwf	i2putrsXLCD@buffer,c
  3901  001474  0E08               	movlw	high STR_5
  3902  001476  6E04               	movwf	i2putrsXLCD@buffer+1,c
  3903  001478  EC05  F00E         	call	i2_putrsXLCD	;wreg free
  3904  00147C                     i2l2753:
  3905                           
  3906                           ;comandos.c: 184: }
  3907                           ;comandos.c: 185: if (i == 3) {
  3908  00147C  0E03               	movlw	3
  3909  00147E  0100               	movlb	0	; () banked
  3910  001480  19EF               	xorwf	_i& (0+255),w,b
  3911  001482  0100               	movlb	0	; () banked
  3912  001484  11F0               	iorwf	(_i+1)& (0+255),w,b
  3913  001486  A4D8               	btfss	status,2,c
  3914  001488  D02D               	goto	i2l2769
  3915                           
  3916                           ; BSR set to: 0
  3917                           ;comandos.c: 186: SetDDRamAddr(0x80);
  3918  00148A  0E80               	movlw	128
  3919  00148C  ECC9  F00C         	call	i2_SetDDRamAddr
  3920                           
  3921                           ;comandos.c: 187: putrsXLCD(" ");
  3922  001490  0E06               	movlw	low STR_1
  3923  001492  6E03               	movwf	i2putrsXLCD@buffer,c
  3924  001494  0E08               	movlw	high STR_1
  3925  001496  6E04               	movwf	i2putrsXLCD@buffer+1,c
  3926  001498  EC05  F00E         	call	i2_putrsXLCD	;wreg free
  3927                           
  3928                           ;comandos.c: 188: SetDDRamAddr(0xC0);
  3929  00149C  0EC0               	movlw	192
  3930  00149E  ECC9  F00C         	call	i2_SetDDRamAddr
  3931                           
  3932                           ;comandos.c: 189: putrsXLCD(" ");
  3933  0014A2  0E06               	movlw	low STR_1
  3934  0014A4  6E03               	movwf	i2putrsXLCD@buffer,c
  3935  0014A6  0E08               	movlw	high STR_1
  3936  0014A8  6E04               	movwf	i2putrsXLCD@buffer+1,c
  3937  0014AA  EC05  F00E         	call	i2_putrsXLCD	;wreg free
  3938                           
  3939                           ;comandos.c: 190: SetDDRamAddr(0x94);
  3940  0014AE  0E94               	movlw	148
  3941  0014B0  ECC9  F00C         	call	i2_SetDDRamAddr
  3942                           
  3943                           ;comandos.c: 191: putrsXLCD(" ");
  3944  0014B4  0E06               	movlw	low STR_1
  3945  0014B6  6E03               	movwf	i2putrsXLCD@buffer,c
  3946  0014B8  0E08               	movlw	high STR_1
  3947  0014BA  6E04               	movwf	i2putrsXLCD@buffer+1,c
  3948  0014BC  EC05  F00E         	call	i2_putrsXLCD	;wreg free
  3949                           
  3950                           ;comandos.c: 192: SetDDRamAddr(0xD4);
  3951  0014C0  0ED4               	movlw	212
  3952  0014C2  ECC9  F00C         	call	i2_SetDDRamAddr
  3953                           
  3954                           ;comandos.c: 193: putrsXLCD(" ");
  3955  0014C6  0E06               	movlw	low STR_1
  3956  0014C8  6E03               	movwf	i2putrsXLCD@buffer,c
  3957  0014CA  0E08               	movlw	high STR_1
  3958  0014CC  6E04               	movwf	i2putrsXLCD@buffer+1,c
  3959  0014CE  EC05  F00E         	call	i2_putrsXLCD	;wreg free
  3960                           
  3961                           ;comandos.c: 194: SetDDRamAddr(0x94);
  3962  0014D2  0E94               	movlw	148
  3963  0014D4  ECC9  F00C         	call	i2_SetDDRamAddr
  3964                           
  3965                           ;comandos.c: 195: putrsXLCD("D");
  3966  0014D8  0E0A               	movlw	low STR_5
  3967  0014DA  6E03               	movwf	i2putrsXLCD@buffer,c
  3968  0014DC  0E08               	movlw	high STR_5
  3969  0014DE  6E04               	movwf	i2putrsXLCD@buffer+1,c
  3970  0014E0  EC05  F00E         	call	i2_putrsXLCD	;wreg free
  3971  0014E4                     i2l2769:
  3972                           
  3973                           ;comandos.c: 196: }
  3974                           ;comandos.c: 197: i--;
  3975  0014E4  0100               	movlb	0	; () banked
  3976  0014E6  07EF               	decf	_i& (0+255),f,b
  3977  0014E8  A0D8               	btfss	status,0,c
  3978  0014EA  07F0               	decf	(_i+1)& (0+255),f,b
  3979                           
  3980                           ; BSR set to: 0
  3981                           ;comandos.c: 198: if (i == -1) {
  3982  0014EC  0100               	movlb	0	; () banked
  3983  0014EE  29EF               	incf	_i& (0+255),w,b
  3984  0014F0  E10A               	bnz	i2l156
  3985  0014F2  0100               	movlb	0	; () banked
  3986  0014F4  29F0               	incf	(_i+1)& (0+255),w,b
  3987  0014F6  A4D8               	btfss	status,2,c
  3988  0014F8  0012               	return	
  3989                           
  3990                           ; BSR set to: 0
  3991                           ;comandos.c: 199: i = 0;
  3992  0014FA  0E00               	movlw	0
  3993  0014FC  0100               	movlb	0	; () banked
  3994  0014FE  6FF0               	movwf	(_i+1)& (0+255),b
  3995  001500  0E00               	movlw	0
  3996  001502  6FEF               	movwf	_i& (0+255),b
  3997  001504  0012               	return	
  3998  001506                     i2l156:
  3999                           
  4000                           ; BSR set to: 0
  4001  001506  0012               	return		;funcret
  4002  001508                     __end_ofi2_btnEsquerdo:
  4003                           	opt stack 0
  4004                           pclatu	equ	0xFFB
  4005                           pclath	equ	0xFFA
  4006                           tblptru	equ	0xFF8
  4007                           tblptrh	equ	0xFF7
  4008                           tblptrl	equ	0xFF6
  4009                           tablat	equ	0xFF5
  4010                           prodh	equ	0xFF4
  4011                           prodl	equ	0xFF3
  4012                           intcon	equ	0xFF2
  4013                           postinc0	equ	0xFEE
  4014                           fsr0h	equ	0xFEA
  4015                           fsr0l	equ	0xFE9
  4016                           wreg	equ	0xFE8
  4017                           postdec1	equ	0xFE5
  4018                           plusw1	equ	0xFE3
  4019                           fsr1h	equ	0xFE2
  4020                           fsr1l	equ	0xFE1
  4021                           indf2	equ	0xFDF
  4022                           plusw2	equ	0xFDB
  4023                           fsr2h	equ	0xFDA
  4024                           fsr2l	equ	0xFD9
  4025                           status	equ	0xFD8
  4026                           
  4027 ;; *************** function i2_btnDireito *****************
  4028 ;; Defined at:
  4029 ;;		line 92 in file "comandos.c"
  4030 ;; Parameters:    Size  Location     Type
  4031 ;;		None
  4032 ;; Auto vars:     Size  Location     Type
  4033 ;;		None
  4034 ;; Return value:  Size  Location     Type
  4035 ;;                  1    wreg      void 
  4036 ;; Registers used:
  4037 ;;		wreg, status,2, status,0, tblptrl, tblptrh, tblptru, cstack
  4038 ;; Tracked objects:
  4039 ;;		On entry : 0/0
  4040 ;;		On exit  : 0/0
  4041 ;;		Unchanged: 0/0
  4042 ;; Data sizes:     COMRAM   BANK0   BANK1   BANK2   BANK3   BANK4   BANK5   BANK6   BANK7
  4043 ;;      Params:         0       0       0       0       0       0       0       0       0
  4044 ;;      Locals:         0       0       0       0       0       0       0       0       0
  4045 ;;      Temps:          0       0       0       0       0       0       0       0       0
  4046 ;;      Totals:         0       0       0       0       0       0       0       0       0
  4047 ;;Total ram usage:        0 bytes
  4048 ;; Hardware stack levels used:    1
  4049 ;; Hardware stack levels required when called:    4
  4050 ;; This function calls:
  4051 ;;		i2_SetDDRamAddr
  4052 ;;		i2_putrsXLCD
  4053 ;; This function is called by:
  4054 ;;		_InterruptPic
  4055 ;; This function uses a non-reentrant model
  4056 ;;
  4057                           
  4058                           	psect	text20
  4059  001508                     __ptext20:
  4060                           	opt stack 0
  4061  001508                     i2_btnDireito:
  4062                           	opt stack 20
  4063                           
  4064                           ;comandos.c: 93: if(i==0){
  4065                           
  4066                           ; BSR set to: 0
  4067                           ;incstack = 0
  4068  001508  0100               	movlb	0	; () banked
  4069  00150A  51EF               	movf	_i& (0+255),w,b
  4070  00150C  0100               	movlb	0	; () banked
  4071  00150E  11F0               	iorwf	(_i+1)& (0+255),w,b
  4072  001510  A4D8               	btfss	status,2,c
  4073  001512  D02D               	goto	i2l2651
  4074                           
  4075                           ; BSR set to: 0
  4076                           ;comandos.c: 94: SetDDRamAddr(0x00);
  4077  001514  0E00               	movlw	0
  4078  001516  ECC9  F00C         	call	i2_SetDDRamAddr
  4079                           
  4080                           ;comandos.c: 95: putrsXLCD(" ");
  4081  00151A  0E06               	movlw	low STR_1
  4082  00151C  6E03               	movwf	i2putrsXLCD@buffer,c
  4083  00151E  0E08               	movlw	high STR_1
  4084  001520  6E04               	movwf	i2putrsXLCD@buffer+1,c
  4085  001522  EC05  F00E         	call	i2_putrsXLCD	;wreg free
  4086                           
  4087                           ;comandos.c: 96: SetDDRamAddr(0x40);
  4088  001526  0E40               	movlw	64
  4089  001528  ECC9  F00C         	call	i2_SetDDRamAddr
  4090                           
  4091                           ;comandos.c: 97: putrsXLCD(" ");
  4092  00152C  0E06               	movlw	low STR_1
  4093  00152E  6E03               	movwf	i2putrsXLCD@buffer,c
  4094  001530  0E08               	movlw	high STR_1
  4095  001532  6E04               	movwf	i2putrsXLCD@buffer+1,c
  4096  001534  EC05  F00E         	call	i2_putrsXLCD	;wreg free
  4097                           
  4098                           ;comandos.c: 98: SetDDRamAddr(0x14);
  4099  001538  0E14               	movlw	20
  4100  00153A  ECC9  F00C         	call	i2_SetDDRamAddr
  4101                           
  4102                           ;comandos.c: 99: putrsXLCD(" ");
  4103  00153E  0E06               	movlw	low STR_1
  4104  001540  6E03               	movwf	i2putrsXLCD@buffer,c
  4105  001542  0E08               	movlw	high STR_1
  4106  001544  6E04               	movwf	i2putrsXLCD@buffer+1,c
  4107  001546  EC05  F00E         	call	i2_putrsXLCD	;wreg free
  4108                           
  4109                           ;comandos.c: 100: SetDDRamAddr(0x54);
  4110  00154A  0E54               	movlw	84
  4111  00154C  ECC9  F00C         	call	i2_SetDDRamAddr
  4112                           
  4113                           ;comandos.c: 101: putrsXLCD(" ");
  4114  001550  0E06               	movlw	low STR_1
  4115  001552  6E03               	movwf	i2putrsXLCD@buffer,c
  4116  001554  0E08               	movlw	high STR_1
  4117  001556  6E04               	movwf	i2putrsXLCD@buffer+1,c
  4118  001558  EC05  F00E         	call	i2_putrsXLCD	;wreg free
  4119                           
  4120                           ;comandos.c: 102: SetDDRamAddr(0x40);
  4121  00155C  0E40               	movlw	64
  4122  00155E  ECC9  F00C         	call	i2_SetDDRamAddr
  4123                           
  4124                           ;comandos.c: 103: putrsXLCD("D");
  4125  001562  0E0A               	movlw	low STR_5
  4126  001564  6E03               	movwf	i2putrsXLCD@buffer,c
  4127  001566  0E08               	movlw	high STR_5
  4128  001568  6E04               	movwf	i2putrsXLCD@buffer+1,c
  4129  00156A  EC05  F00E         	call	i2_putrsXLCD	;wreg free
  4130  00156E                     i2l2651:
  4131                           
  4132                           ;comandos.c: 104: }
  4133                           ;comandos.c: 105: if(i==1){
  4134  00156E  0100               	movlb	0	; () banked
  4135  001570  05EF               	decf	_i& (0+255),w,b
  4136  001572  0100               	movlb	0	; () banked
  4137  001574  11F0               	iorwf	(_i+1)& (0+255),w,b
  4138  001576  A4D8               	btfss	status,2,c
  4139  001578  D02D               	goto	i2l2667
  4140                           
  4141                           ; BSR set to: 0
  4142                           ;comandos.c: 106: SetDDRamAddr(0x00);
  4143  00157A  0E00               	movlw	0
  4144  00157C  ECC9  F00C         	call	i2_SetDDRamAddr
  4145                           
  4146                           ;comandos.c: 107: putrsXLCD(" ");
  4147  001580  0E06               	movlw	low STR_1
  4148  001582  6E03               	movwf	i2putrsXLCD@buffer,c
  4149  001584  0E08               	movlw	high STR_1
  4150  001586  6E04               	movwf	i2putrsXLCD@buffer+1,c
  4151  001588  EC05  F00E         	call	i2_putrsXLCD	;wreg free
  4152                           
  4153                           ;comandos.c: 108: SetDDRamAddr(0x40);
  4154  00158C  0E40               	movlw	64
  4155  00158E  ECC9  F00C         	call	i2_SetDDRamAddr
  4156                           
  4157                           ;comandos.c: 109: putrsXLCD(" ");
  4158  001592  0E06               	movlw	low STR_1
  4159  001594  6E03               	movwf	i2putrsXLCD@buffer,c
  4160  001596  0E08               	movlw	high STR_1
  4161  001598  6E04               	movwf	i2putrsXLCD@buffer+1,c
  4162  00159A  EC05  F00E         	call	i2_putrsXLCD	;wreg free
  4163                           
  4164                           ;comandos.c: 110: SetDDRamAddr(0x14);
  4165  00159E  0E14               	movlw	20
  4166  0015A0  ECC9  F00C         	call	i2_SetDDRamAddr
  4167                           
  4168                           ;comandos.c: 111: putrsXLCD(" ");
  4169  0015A4  0E06               	movlw	low STR_1
  4170  0015A6  6E03               	movwf	i2putrsXLCD@buffer,c
  4171  0015A8  0E08               	movlw	high STR_1
  4172  0015AA  6E04               	movwf	i2putrsXLCD@buffer+1,c
  4173  0015AC  EC05  F00E         	call	i2_putrsXLCD	;wreg free
  4174                           
  4175                           ;comandos.c: 112: SetDDRamAddr(0x54);
  4176  0015B0  0E54               	movlw	84
  4177  0015B2  ECC9  F00C         	call	i2_SetDDRamAddr
  4178                           
  4179                           ;comandos.c: 113: putrsXLCD(" ");
  4180  0015B6  0E06               	movlw	low STR_1
  4181  0015B8  6E03               	movwf	i2putrsXLCD@buffer,c
  4182  0015BA  0E08               	movlw	high STR_1
  4183  0015BC  6E04               	movwf	i2putrsXLCD@buffer+1,c
  4184  0015BE  EC05  F00E         	call	i2_putrsXLCD	;wreg free
  4185                           
  4186                           ;comandos.c: 114: SetDDRamAddr(0x14);
  4187  0015C2  0E14               	movlw	20
  4188  0015C4  ECC9  F00C         	call	i2_SetDDRamAddr
  4189                           
  4190                           ;comandos.c: 115: putrsXLCD("D");
  4191  0015C8  0E0A               	movlw	low STR_5
  4192  0015CA  6E03               	movwf	i2putrsXLCD@buffer,c
  4193  0015CC  0E08               	movlw	high STR_5
  4194  0015CE  6E04               	movwf	i2putrsXLCD@buffer+1,c
  4195  0015D0  EC05  F00E         	call	i2_putrsXLCD	;wreg free
  4196  0015D4                     i2l2667:
  4197                           
  4198                           ;comandos.c: 116: }
  4199                           ;comandos.c: 117: if(i==2){
  4200  0015D4  0E02               	movlw	2
  4201  0015D6  0100               	movlb	0	; () banked
  4202  0015D8  19EF               	xorwf	_i& (0+255),w,b
  4203  0015DA  0100               	movlb	0	; () banked
  4204  0015DC  11F0               	iorwf	(_i+1)& (0+255),w,b
  4205  0015DE  A4D8               	btfss	status,2,c
  4206  0015E0  D02D               	goto	i2l2683
  4207                           
  4208                           ; BSR set to: 0
  4209                           ;comandos.c: 118: SetDDRamAddr(0x00);
  4210  0015E2  0E00               	movlw	0
  4211  0015E4  ECC9  F00C         	call	i2_SetDDRamAddr
  4212                           
  4213                           ;comandos.c: 119: putrsXLCD(" ");
  4214  0015E8  0E06               	movlw	low STR_1
  4215  0015EA  6E03               	movwf	i2putrsXLCD@buffer,c
  4216  0015EC  0E08               	movlw	high STR_1
  4217  0015EE  6E04               	movwf	i2putrsXLCD@buffer+1,c
  4218  0015F0  EC05  F00E         	call	i2_putrsXLCD	;wreg free
  4219                           
  4220                           ;comandos.c: 120: SetDDRamAddr(0x40);
  4221  0015F4  0E40               	movlw	64
  4222  0015F6  ECC9  F00C         	call	i2_SetDDRamAddr
  4223                           
  4224                           ;comandos.c: 121: putrsXLCD(" ");
  4225  0015FA  0E06               	movlw	low STR_1
  4226  0015FC  6E03               	movwf	i2putrsXLCD@buffer,c
  4227  0015FE  0E08               	movlw	high STR_1
  4228  001600  6E04               	movwf	i2putrsXLCD@buffer+1,c
  4229  001602  EC05  F00E         	call	i2_putrsXLCD	;wreg free
  4230                           
  4231                           ;comandos.c: 122: SetDDRamAddr(0x14);
  4232  001606  0E14               	movlw	20
  4233  001608  ECC9  F00C         	call	i2_SetDDRamAddr
  4234                           
  4235                           ;comandos.c: 123: putrsXLCD(" ");
  4236  00160C  0E06               	movlw	low STR_1
  4237  00160E  6E03               	movwf	i2putrsXLCD@buffer,c
  4238  001610  0E08               	movlw	high STR_1
  4239  001612  6E04               	movwf	i2putrsXLCD@buffer+1,c
  4240  001614  EC05  F00E         	call	i2_putrsXLCD	;wreg free
  4241                           
  4242                           ;comandos.c: 124: SetDDRamAddr(0x54);
  4243  001618  0E54               	movlw	84
  4244  00161A  ECC9  F00C         	call	i2_SetDDRamAddr
  4245                           
  4246                           ;comandos.c: 125: putrsXLCD(" ");
  4247  00161E  0E06               	movlw	low STR_1
  4248  001620  6E03               	movwf	i2putrsXLCD@buffer,c
  4249  001622  0E08               	movlw	high STR_1
  4250  001624  6E04               	movwf	i2putrsXLCD@buffer+1,c
  4251  001626  EC05  F00E         	call	i2_putrsXLCD	;wreg free
  4252                           
  4253                           ;comandos.c: 126: SetDDRamAddr(0x54);
  4254  00162A  0E54               	movlw	84
  4255  00162C  ECC9  F00C         	call	i2_SetDDRamAddr
  4256                           
  4257                           ;comandos.c: 127: putrsXLCD("D");
  4258  001630  0E0A               	movlw	low STR_5
  4259  001632  6E03               	movwf	i2putrsXLCD@buffer,c
  4260  001634  0E08               	movlw	high STR_5
  4261  001636  6E04               	movwf	i2putrsXLCD@buffer+1,c
  4262  001638  EC05  F00E         	call	i2_putrsXLCD	;wreg free
  4263  00163C                     i2l2683:
  4264                           
  4265                           ;comandos.c: 128: }
  4266                           ;comandos.c: 129: if(i==3){
  4267  00163C  0E03               	movlw	3
  4268  00163E  0100               	movlb	0	; () banked
  4269  001640  19EF               	xorwf	_i& (0+255),w,b
  4270  001642  0100               	movlb	0	; () banked
  4271  001644  11F0               	iorwf	(_i+1)& (0+255),w,b
  4272  001646  A4D8               	btfss	status,2,c
  4273  001648  D02D               	goto	i2l2699
  4274                           
  4275                           ; BSR set to: 0
  4276                           ;comandos.c: 130: SetDDRamAddr(0x00);
  4277  00164A  0E00               	movlw	0
  4278  00164C  ECC9  F00C         	call	i2_SetDDRamAddr
  4279                           
  4280                           ;comandos.c: 131: putrsXLCD(" ");
  4281  001650  0E06               	movlw	low STR_1
  4282  001652  6E03               	movwf	i2putrsXLCD@buffer,c
  4283  001654  0E08               	movlw	high STR_1
  4284  001656  6E04               	movwf	i2putrsXLCD@buffer+1,c
  4285  001658  EC05  F00E         	call	i2_putrsXLCD	;wreg free
  4286                           
  4287                           ;comandos.c: 132: SetDDRamAddr(0x40);
  4288  00165C  0E40               	movlw	64
  4289  00165E  ECC9  F00C         	call	i2_SetDDRamAddr
  4290                           
  4291                           ;comandos.c: 133: putrsXLCD(" ");
  4292  001662  0E06               	movlw	low STR_1
  4293  001664  6E03               	movwf	i2putrsXLCD@buffer,c
  4294  001666  0E08               	movlw	high STR_1
  4295  001668  6E04               	movwf	i2putrsXLCD@buffer+1,c
  4296  00166A  EC05  F00E         	call	i2_putrsXLCD	;wreg free
  4297                           
  4298                           ;comandos.c: 134: SetDDRamAddr(0x14);
  4299  00166E  0E14               	movlw	20
  4300  001670  ECC9  F00C         	call	i2_SetDDRamAddr
  4301                           
  4302                           ;comandos.c: 135: putrsXLCD(" ");
  4303  001674  0E06               	movlw	low STR_1
  4304  001676  6E03               	movwf	i2putrsXLCD@buffer,c
  4305  001678  0E08               	movlw	high STR_1
  4306  00167A  6E04               	movwf	i2putrsXLCD@buffer+1,c
  4307  00167C  EC05  F00E         	call	i2_putrsXLCD	;wreg free
  4308                           
  4309                           ;comandos.c: 136: SetDDRamAddr(0x54);
  4310  001680  0E54               	movlw	84
  4311  001682  ECC9  F00C         	call	i2_SetDDRamAddr
  4312                           
  4313                           ;comandos.c: 137: putrsXLCD(" ");
  4314  001686  0E06               	movlw	low STR_1
  4315  001688  6E03               	movwf	i2putrsXLCD@buffer,c
  4316  00168A  0E08               	movlw	high STR_1
  4317  00168C  6E04               	movwf	i2putrsXLCD@buffer+1,c
  4318  00168E  EC05  F00E         	call	i2_putrsXLCD	;wreg free
  4319                           
  4320                           ;comandos.c: 138: SetDDRamAddr(0x54);
  4321  001692  0E54               	movlw	84
  4322  001694  ECC9  F00C         	call	i2_SetDDRamAddr
  4323                           
  4324                           ;comandos.c: 139: putrsXLCD("D");
  4325  001698  0E0A               	movlw	low STR_5
  4326  00169A  6E03               	movwf	i2putrsXLCD@buffer,c
  4327  00169C  0E08               	movlw	high STR_5
  4328  00169E  6E04               	movwf	i2putrsXLCD@buffer+1,c
  4329  0016A0  EC05  F00E         	call	i2_putrsXLCD	;wreg free
  4330  0016A4                     i2l2699:
  4331                           
  4332                           ;comandos.c: 140: }
  4333                           ;comandos.c: 141: i++;
  4334  0016A4  0100               	movlb	0	; () banked
  4335  0016A6  4BEF               	infsnz	_i& (0+255),f,b
  4336  0016A8  2BF0               	incf	(_i+1)& (0+255),f,b
  4337                           
  4338                           ; BSR set to: 0
  4339                           ;comandos.c: 142: if(i==4){
  4340  0016AA  0E04               	movlw	4
  4341  0016AC  0100               	movlb	0	; () banked
  4342  0016AE  19EF               	xorwf	_i& (0+255),w,b
  4343  0016B0  0100               	movlb	0	; () banked
  4344  0016B2  11F0               	iorwf	(_i+1)& (0+255),w,b
  4345  0016B4  A4D8               	btfss	status,2,c
  4346  0016B6  0012               	return	
  4347                           
  4348                           ; BSR set to: 0
  4349                           ;comandos.c: 143: i = 3;
  4350  0016B8  0E00               	movlw	0
  4351  0016BA  0100               	movlb	0	; () banked
  4352  0016BC  6FF0               	movwf	(_i+1)& (0+255),b
  4353  0016BE  0E03               	movlw	3
  4354  0016C0  6FEF               	movwf	_i& (0+255),b
  4355  0016C2  0012               	return	
  4356  0016C4                     __end_ofi2_btnDireito:
  4357                           	opt stack 0
  4358                           pclatu	equ	0xFFB
  4359                           pclath	equ	0xFFA
  4360                           tblptru	equ	0xFF8
  4361                           tblptrh	equ	0xFF7
  4362                           tblptrl	equ	0xFF6
  4363                           tablat	equ	0xFF5
  4364                           prodh	equ	0xFF4
  4365                           prodl	equ	0xFF3
  4366                           intcon	equ	0xFF2
  4367                           postinc0	equ	0xFEE
  4368                           fsr0h	equ	0xFEA
  4369                           fsr0l	equ	0xFE9
  4370                           wreg	equ	0xFE8
  4371                           postdec1	equ	0xFE5
  4372                           plusw1	equ	0xFE3
  4373                           fsr1h	equ	0xFE2
  4374                           fsr1l	equ	0xFE1
  4375                           indf2	equ	0xFDF
  4376                           plusw2	equ	0xFDB
  4377                           fsr2h	equ	0xFDA
  4378                           fsr2l	equ	0xFD9
  4379                           status	equ	0xFD8
  4380                           
  4381 ;; *************** function i2_btnAtira *****************
  4382 ;; Defined at:
  4383 ;;		line 203 in file "comandos.c"
  4384 ;; Parameters:    Size  Location     Type
  4385 ;;		None
  4386 ;; Auto vars:     Size  Location     Type
  4387 ;;  btnAtira       15   54[COMRAM] unsigned char [15]
  4388 ;;  btnAtira       15   39[COMRAM] unsigned char [15]
  4389 ;;  btnAtira       15   24[COMRAM] unsigned char [15]
  4390 ;;  btnAtira       15    9[COMRAM] unsigned char [15]
  4391 ;;  btnAtira        2   75[COMRAM] int 
  4392 ;;  btnAtira        2   73[COMRAM] int 
  4393 ;;  btnAtira        2   71[COMRAM] int 
  4394 ;;  btnAtira        2   69[COMRAM] int 
  4395 ;; Return value:  Size  Location     Type
  4396 ;;                  1    wreg      void 
  4397 ;; Registers used:
  4398 ;;		wreg, fsr1l, fsr1h, fsr2l, fsr2h, status,2, status,0, tblptrl, tblptrh, tblptru, cstack
  4399 ;; Tracked objects:
  4400 ;;		On entry : 0/0
  4401 ;;		On exit  : 0/0
  4402 ;;		Unchanged: 0/0
  4403 ;; Data sizes:     COMRAM   BANK0   BANK1   BANK2   BANK3   BANK4   BANK5   BANK6   BANK7
  4404 ;;      Params:         0       0       0       0       0       0       0       0       0
  4405 ;;      Locals:        68       0       0       0       0       0       0       0       0
  4406 ;;      Temps:          4       0       0       0       0       0       0       0       0
  4407 ;;      Totals:        72       0       0       0       0       0       0       0       0
  4408 ;;Total ram usage:       72 bytes
  4409 ;; Hardware stack levels used:    1
  4410 ;; Hardware stack levels required when called:    4
  4411 ;; This function calls:
  4412 ;;		i2_Delay10KTCYx
  4413 ;;		i2_SetDDRamAddr
  4414 ;;		i2_putrsXLCD
  4415 ;; This function is called by:
  4416 ;;		_InterruptPic
  4417 ;; This function uses a non-reentrant model
  4418 ;;
  4419                           
  4420                           	psect	text21
  4421  000BFE                     __ptext21:
  4422                           	opt stack 0
  4423  000BFE                     i2_btnAtira:
  4424                           	opt stack 20
  4425                           
  4426                           ;comandos.c: 205: char pos_linha0[] = {0x81, 0x82, 0x83, 0x84, 0x85, 0x86, 0x87, 0x88, 0
      +                          x89, 0x8A, 0x8B, 0x8C, 0x8D, 0x8E, 0x8F};
  4427                           
  4428                           ; BSR set to: 0
  4429                           ;incstack = 0
  4430  000BFE  EE20  F0DA         	lfsr	2,btnAtira@F4904
  4431  000C02  EE10  F00A         	lfsr	1,i2btnAtira@pos_linha0
  4432  000C06  0E0E               	movlw	14
  4433  000C08                     i2u139_41:
  4434  000C08  CFDB FFE3          	movff	plusw2,plusw1
  4435  000C0C  06E8               	decf	wreg,f,c
  4436  000C0E  E2FC               	bc	i2u139_41
  4437                           
  4438                           ;comandos.c: 206: char pos_linha1[] = {0xC1, 0xC2, 0xC3, 0xC4, 0xC5, 0xC6, 0xC7, 0xC8, 0
      +                          xC9, 0xCA, 0xCB, 0xCC, 0xCD, 0xCE, 0xCF};
  4439  000C10  EE20  F0CB         	lfsr	2,btnAtira@F4906
  4440  000C14  EE10  F019         	lfsr	1,i2btnAtira@pos_linha1
  4441  000C18  0E0E               	movlw	14
  4442  000C1A                     i2u140_41:
  4443  000C1A  CFDB FFE3          	movff	plusw2,plusw1
  4444  000C1E  06E8               	decf	wreg,f,c
  4445  000C20  E2FC               	bc	i2u140_41
  4446                           
  4447                           ;comandos.c: 207: char pos_linha2[] = {0x95, 0x96, 0x97, 0x98, 0x99, 0x9A, 0x9B, 0x9C, 0
      +                          x9D, 0x9E, 0x9F, 0xA0, 0xA1, 0xA2, 0xA3};
  4448  000C22  EE20  F0BC         	lfsr	2,btnAtira@F4908
  4449  000C26  EE10  F028         	lfsr	1,i2btnAtira@pos_linha2
  4450  000C2A  0E0E               	movlw	14
  4451  000C2C                     i2u141_41:
  4452  000C2C  CFDB FFE3          	movff	plusw2,plusw1
  4453  000C30  06E8               	decf	wreg,f,c
  4454  000C32  E2FC               	bc	i2u141_41
  4455                           
  4456                           ;comandos.c: 208: char pos_linha3[] = {0xD5, 0xD6, 0xD7, 0xD8, 0xD9, 0xDA, 0xDB, 0xDC, 0
      +                          xDD, 0xDE, 0xDF, 0xE0, 0xE1, 0xE2, 0xE3};
  4457  000C34  EE20  F0AD         	lfsr	2,btnAtira@F4910
  4458  000C38  EE10  F037         	lfsr	1,i2btnAtira@pos_linha3
  4459  000C3C  0E0E               	movlw	14
  4460  000C3E                     i2u142_41:
  4461  000C3E  CFDB FFE3          	movff	plusw2,plusw1
  4462  000C42  06E8               	decf	wreg,f,c
  4463  000C44  E2FC               	bc	i2u142_41
  4464                           
  4465                           ;comandos.c: 210: if (i == 0) {
  4466  000C46  0100               	movlb	0	; () banked
  4467  000C48  51EF               	movf	_i& (0+255),w,b
  4468  000C4A  0100               	movlb	0	; () banked
  4469  000C4C  11F0               	iorwf	(_i+1)& (0+255),w,b
  4470  000C4E  A4D8               	btfss	status,2,c
  4471  000C50  D052               	goto	i2l2801
  4472                           
  4473                           ; BSR set to: 0
  4474                           ;comandos.c: 211: SetDDRamAddr(0x81);
  4475  000C52  0E81               	movlw	129
  4476  000C54  ECC9  F00C         	call	i2_SetDDRamAddr
  4477                           
  4478                           ;comandos.c: 212: putrsXLCD("-");
  4479  000C58  0E08               	movlw	low STR_46
  4480  000C5A  6E03               	movwf	i2putrsXLCD@buffer,c
  4481  000C5C  0E08               	movlw	high STR_46
  4482  000C5E  6E04               	movwf	i2putrsXLCD@buffer+1,c
  4483  000C60  EC05  F00E         	call	i2_putrsXLCD	;wreg free
  4484                           
  4485                           ;comandos.c: 213: int coluna0 = 1;
  4486  000C64  0E00               	movlw	0
  4487  000C66  6E47               	movwf	i2btnAtira@coluna0+1,c
  4488  000C68  0E01               	movlw	1
  4489  000C6A  6E46               	movwf	i2btnAtira@coluna0,c
  4490                           
  4491                           ;comandos.c: 214: while (coluna0 < 15) {
  4492  000C6C  D038               	goto	i2l2797
  4493  000C6E                     i2l2785:
  4494                           
  4495                           ;comandos.c: 215: SetDDRamAddr(pos_linha0[coluna0]);
  4496  000C6E  0E0A               	movlw	low i2btnAtira@pos_linha0
  4497  000C70  2446               	addwf	i2btnAtira@coluna0,w,c
  4498  000C72  6ED9               	movwf	fsr2l,c
  4499  000C74  0E00               	movlw	high i2btnAtira@pos_linha0
  4500  000C76  2047               	addwfc	i2btnAtira@coluna0+1,w,c
  4501  000C78  6EDA               	movwf	fsr2h,c
  4502  000C7A  50DF               	movf	indf2,w,c
  4503  000C7C  ECC9  F00C         	call	i2_SetDDRamAddr
  4504                           
  4505                           ;comandos.c: 216: putrsXLCD("-");
  4506  000C80  0E08               	movlw	low STR_46
  4507  000C82  6E03               	movwf	i2putrsXLCD@buffer,c
  4508  000C84  0E08               	movlw	high STR_46
  4509  000C86  6E04               	movwf	i2putrsXLCD@buffer+1,c
  4510  000C88  EC05  F00E         	call	i2_putrsXLCD	;wreg free
  4511                           
  4512                           ;comandos.c: 217: SetDDRamAddr(pos_linha0[coluna0 - 1]);
  4513  000C8C  0EFF               	movlw	255
  4514  000C8E  6E06               	movwf	??i2_btnAtira& (0+255),c
  4515  000C90  0EFF               	movlw	255
  4516  000C92  6E07               	movwf	(??i2_btnAtira+1)& (0+255),c
  4517  000C94  C046  F008         	movff	i2btnAtira@coluna0,??i2_btnAtira+2
  4518  000C98  C047  F009         	movff	i2btnAtira@coluna0+1,??i2_btnAtira+3
  4519  000C9C  5006               	movf	??i2_btnAtira,w,c
  4520  000C9E  2608               	addwf	??i2_btnAtira+2,f,c
  4521  000CA0  5007               	movf	??i2_btnAtira+1,w,c
  4522  000CA2  2209               	addwfc	??i2_btnAtira+3,f,c
  4523  000CA4  0E0A               	movlw	low i2btnAtira@pos_linha0
  4524  000CA6  2408               	addwf	??i2_btnAtira+2,w,c
  4525  000CA8  6ED9               	movwf	fsr2l,c
  4526  000CAA  0E00               	movlw	high i2btnAtira@pos_linha0
  4527  000CAC  2009               	addwfc	??i2_btnAtira+3,w,c
  4528  000CAE  6EDA               	movwf	fsr2h,c
  4529  000CB0  50DF               	movf	indf2,w,c
  4530  000CB2  ECC9  F00C         	call	i2_SetDDRamAddr
  4531                           
  4532                           ;comandos.c: 218: putrsXLCD(" ");
  4533  000CB6  0E06               	movlw	low STR_1
  4534  000CB8  6E03               	movwf	i2putrsXLCD@buffer,c
  4535  000CBA  0E08               	movlw	high STR_1
  4536  000CBC  6E04               	movwf	i2putrsXLCD@buffer+1,c
  4537  000CBE  EC05  F00E         	call	i2_putrsXLCD	;wreg free
  4538                           
  4539                           ;comandos.c: 219: coluna0++;
  4540  000CC2  4A46               	infsnz	i2btnAtira@coluna0,f,c
  4541  000CC4  2A47               	incf	i2btnAtira@coluna0+1,f,c
  4542                           
  4543                           ;comandos.c: 220: Delay10KTCYx(25);
  4544  000CC6  0E19               	movlw	25
  4545  000CC8  EC56  F00E         	call	i2_Delay10KTCYx
  4546                           
  4547                           ;comandos.c: 221: SetDDRamAddr(pos_linha0[14]);
  4548  000CCC  5018               	movf	i2btnAtira@pos_linha0+14,w,c
  4549  000CCE  ECC9  F00C         	call	i2_SetDDRamAddr
  4550                           
  4551                           ;comandos.c: 222: putrsXLCD(" ");
  4552  000CD2  0E06               	movlw	low STR_1
  4553  000CD4  6E03               	movwf	i2putrsXLCD@buffer,c
  4554  000CD6  0E08               	movlw	high STR_1
  4555  000CD8  6E04               	movwf	i2putrsXLCD@buffer+1,c
  4556  000CDA  EC05  F00E         	call	i2_putrsXLCD	;wreg free
  4557  000CDE                     i2l2797:
  4558  000CDE  BE47               	btfsc	i2btnAtira@coluna0+1,7,c
  4559  000CE0  D7C6               	goto	i2l2785
  4560  000CE2  5047               	movf	i2btnAtira@coluna0+1,w,c
  4561  000CE4  E104               	bnz	i2l2799
  4562  000CE6  0E0F               	movlw	15
  4563  000CE8  5C46               	subwf	i2btnAtira@coluna0,w,c
  4564  000CEA  A0D8               	btfss	status,0,c
  4565  000CEC  D7C0               	goto	i2l2785
  4566  000CEE                     i2l2799:
  4567                           
  4568                           ;comandos.c: 223: }
  4569                           ;comandos.c: 224: matar = 0;
  4570  000CEE  0E00               	movlw	0
  4571  000CF0  6E5D               	movwf	_matar+1,c
  4572  000CF2  0E00               	movlw	0
  4573  000CF4  6E5C               	movwf	_matar,c
  4574  000CF6                     i2l2801:
  4575                           
  4576                           ;comandos.c: 225: }
  4577                           ;comandos.c: 226: if (i == 1) {
  4578  000CF6  0100               	movlb	0	; () banked
  4579  000CF8  05EF               	decf	_i& (0+255),w,b
  4580  000CFA  0100               	movlb	0	; () banked
  4581  000CFC  11F0               	iorwf	(_i+1)& (0+255),w,b
  4582  000CFE  A4D8               	btfss	status,2,c
  4583  000D00  D052               	goto	i2l2825
  4584                           
  4585                           ; BSR set to: 0
  4586                           ;comandos.c: 227: SetDDRamAddr(0xC1);
  4587  000D02  0EC1               	movlw	193
  4588  000D04  ECC9  F00C         	call	i2_SetDDRamAddr
  4589                           
  4590                           ;comandos.c: 228: putrsXLCD("-");
  4591  000D08  0E08               	movlw	low STR_46
  4592  000D0A  6E03               	movwf	i2putrsXLCD@buffer,c
  4593  000D0C  0E08               	movlw	high STR_46
  4594  000D0E  6E04               	movwf	i2putrsXLCD@buffer+1,c
  4595  000D10  EC05  F00E         	call	i2_putrsXLCD	;wreg free
  4596                           
  4597                           ;comandos.c: 229: int coluna1 = 1;
  4598  000D14  0E00               	movlw	0
  4599  000D16  6E49               	movwf	i2btnAtira@coluna1+1,c
  4600  000D18  0E01               	movlw	1
  4601  000D1A  6E48               	movwf	i2btnAtira@coluna1,c
  4602                           
  4603                           ;comandos.c: 230: while (coluna1 < 15) {
  4604  000D1C  D038               	goto	i2l2821
  4605  000D1E                     i2l2809:
  4606                           
  4607                           ;comandos.c: 231: SetDDRamAddr(pos_linha1[coluna1]);
  4608  000D1E  0E19               	movlw	low i2btnAtira@pos_linha1
  4609  000D20  2448               	addwf	i2btnAtira@coluna1,w,c
  4610  000D22  6ED9               	movwf	fsr2l,c
  4611  000D24  0E00               	movlw	high i2btnAtira@pos_linha1
  4612  000D26  2049               	addwfc	i2btnAtira@coluna1+1,w,c
  4613  000D28  6EDA               	movwf	fsr2h,c
  4614  000D2A  50DF               	movf	indf2,w,c
  4615  000D2C  ECC9  F00C         	call	i2_SetDDRamAddr
  4616                           
  4617                           ;comandos.c: 232: putrsXLCD("-");
  4618  000D30  0E08               	movlw	low STR_46
  4619  000D32  6E03               	movwf	i2putrsXLCD@buffer,c
  4620  000D34  0E08               	movlw	high STR_46
  4621  000D36  6E04               	movwf	i2putrsXLCD@buffer+1,c
  4622  000D38  EC05  F00E         	call	i2_putrsXLCD	;wreg free
  4623                           
  4624                           ;comandos.c: 233: SetDDRamAddr(pos_linha1[coluna1 - 1]);
  4625  000D3C  0EFF               	movlw	255
  4626  000D3E  6E06               	movwf	??i2_btnAtira& (0+255),c
  4627  000D40  0EFF               	movlw	255
  4628  000D42  6E07               	movwf	(??i2_btnAtira+1)& (0+255),c
  4629  000D44  C048  F008         	movff	i2btnAtira@coluna1,??i2_btnAtira+2
  4630  000D48  C049  F009         	movff	i2btnAtira@coluna1+1,??i2_btnAtira+3
  4631  000D4C  5006               	movf	??i2_btnAtira,w,c
  4632  000D4E  2608               	addwf	??i2_btnAtira+2,f,c
  4633  000D50  5007               	movf	??i2_btnAtira+1,w,c
  4634  000D52  2209               	addwfc	??i2_btnAtira+3,f,c
  4635  000D54  0E19               	movlw	low i2btnAtira@pos_linha1
  4636  000D56  2408               	addwf	??i2_btnAtira+2,w,c
  4637  000D58  6ED9               	movwf	fsr2l,c
  4638  000D5A  0E00               	movlw	high i2btnAtira@pos_linha1
  4639  000D5C  2009               	addwfc	??i2_btnAtira+3,w,c
  4640  000D5E  6EDA               	movwf	fsr2h,c
  4641  000D60  50DF               	movf	indf2,w,c
  4642  000D62  ECC9  F00C         	call	i2_SetDDRamAddr
  4643                           
  4644                           ;comandos.c: 234: putrsXLCD(" ");
  4645  000D66  0E06               	movlw	low STR_1
  4646  000D68  6E03               	movwf	i2putrsXLCD@buffer,c
  4647  000D6A  0E08               	movlw	high STR_1
  4648  000D6C  6E04               	movwf	i2putrsXLCD@buffer+1,c
  4649  000D6E  EC05  F00E         	call	i2_putrsXLCD	;wreg free
  4650                           
  4651                           ;comandos.c: 235: coluna1++;
  4652  000D72  4A48               	infsnz	i2btnAtira@coluna1,f,c
  4653  000D74  2A49               	incf	i2btnAtira@coluna1+1,f,c
  4654                           
  4655                           ;comandos.c: 236: Delay10KTCYx(25);
  4656  000D76  0E19               	movlw	25
  4657  000D78  EC56  F00E         	call	i2_Delay10KTCYx
  4658                           
  4659                           ;comandos.c: 237: SetDDRamAddr(pos_linha1[14]);
  4660  000D7C  5027               	movf	i2btnAtira@pos_linha1+14,w,c
  4661  000D7E  ECC9  F00C         	call	i2_SetDDRamAddr
  4662                           
  4663                           ;comandos.c: 238: putrsXLCD(" ");
  4664  000D82  0E06               	movlw	low STR_1
  4665  000D84  6E03               	movwf	i2putrsXLCD@buffer,c
  4666  000D86  0E08               	movlw	high STR_1
  4667  000D88  6E04               	movwf	i2putrsXLCD@buffer+1,c
  4668  000D8A  EC05  F00E         	call	i2_putrsXLCD	;wreg free
  4669  000D8E                     i2l2821:
  4670  000D8E  BE49               	btfsc	i2btnAtira@coluna1+1,7,c
  4671  000D90  D7C6               	goto	i2l2809
  4672  000D92  5049               	movf	i2btnAtira@coluna1+1,w,c
  4673  000D94  E104               	bnz	i2l2823
  4674  000D96  0E0F               	movlw	15
  4675  000D98  5C48               	subwf	i2btnAtira@coluna1,w,c
  4676  000D9A  A0D8               	btfss	status,0,c
  4677  000D9C  D7C0               	goto	i2l2809
  4678  000D9E                     i2l2823:
  4679                           
  4680                           ;comandos.c: 239: }
  4681                           ;comandos.c: 240: matar = 1;
  4682  000D9E  0E00               	movlw	0
  4683  000DA0  6E5D               	movwf	_matar+1,c
  4684  000DA2  0E01               	movlw	1
  4685  000DA4  6E5C               	movwf	_matar,c
  4686  000DA6                     i2l2825:
  4687                           
  4688                           ;comandos.c: 241: }
  4689                           ;comandos.c: 242: if (i == 2) {
  4690  000DA6  0E02               	movlw	2
  4691  000DA8  0100               	movlb	0	; () banked
  4692  000DAA  19EF               	xorwf	_i& (0+255),w,b
  4693  000DAC  0100               	movlb	0	; () banked
  4694  000DAE  11F0               	iorwf	(_i+1)& (0+255),w,b
  4695  000DB0  A4D8               	btfss	status,2,c
  4696  000DB2  D052               	goto	i2l2849
  4697                           
  4698                           ; BSR set to: 0
  4699                           ;comandos.c: 243: SetDDRamAddr(0x95);
  4700  000DB4  0E95               	movlw	149
  4701  000DB6  ECC9  F00C         	call	i2_SetDDRamAddr
  4702                           
  4703                           ;comandos.c: 244: putrsXLCD("-");
  4704  000DBA  0E08               	movlw	low STR_46
  4705  000DBC  6E03               	movwf	i2putrsXLCD@buffer,c
  4706  000DBE  0E08               	movlw	high STR_46
  4707  000DC0  6E04               	movwf	i2putrsXLCD@buffer+1,c
  4708  000DC2  EC05  F00E         	call	i2_putrsXLCD	;wreg free
  4709                           
  4710                           ;comandos.c: 245: int coluna2 = 1;
  4711  000DC6  0E00               	movlw	0
  4712  000DC8  6E4B               	movwf	i2btnAtira@coluna2+1,c
  4713  000DCA  0E01               	movlw	1
  4714  000DCC  6E4A               	movwf	i2btnAtira@coluna2,c
  4715                           
  4716                           ;comandos.c: 246: while (coluna2 < 15) {
  4717  000DCE  D038               	goto	i2l2845
  4718  000DD0                     i2l2833:
  4719                           
  4720                           ;comandos.c: 247: SetDDRamAddr(pos_linha2[coluna2]);
  4721  000DD0  0E28               	movlw	low i2btnAtira@pos_linha2
  4722  000DD2  244A               	addwf	i2btnAtira@coluna2,w,c
  4723  000DD4  6ED9               	movwf	fsr2l,c
  4724  000DD6  0E00               	movlw	high i2btnAtira@pos_linha2
  4725  000DD8  204B               	addwfc	i2btnAtira@coluna2+1,w,c
  4726  000DDA  6EDA               	movwf	fsr2h,c
  4727  000DDC  50DF               	movf	indf2,w,c
  4728  000DDE  ECC9  F00C         	call	i2_SetDDRamAddr
  4729                           
  4730                           ;comandos.c: 248: putrsXLCD("-");
  4731  000DE2  0E08               	movlw	low STR_46
  4732  000DE4  6E03               	movwf	i2putrsXLCD@buffer,c
  4733  000DE6  0E08               	movlw	high STR_46
  4734  000DE8  6E04               	movwf	i2putrsXLCD@buffer+1,c
  4735  000DEA  EC05  F00E         	call	i2_putrsXLCD	;wreg free
  4736                           
  4737                           ;comandos.c: 249: SetDDRamAddr(pos_linha2[coluna2 - 1]);
  4738  000DEE  0EFF               	movlw	255
  4739  000DF0  6E06               	movwf	??i2_btnAtira& (0+255),c
  4740  000DF2  0EFF               	movlw	255
  4741  000DF4  6E07               	movwf	(??i2_btnAtira+1)& (0+255),c
  4742  000DF6  C04A  F008         	movff	i2btnAtira@coluna2,??i2_btnAtira+2
  4743  000DFA  C04B  F009         	movff	i2btnAtira@coluna2+1,??i2_btnAtira+3
  4744  000DFE  5006               	movf	??i2_btnAtira,w,c
  4745  000E00  2608               	addwf	??i2_btnAtira+2,f,c
  4746  000E02  5007               	movf	??i2_btnAtira+1,w,c
  4747  000E04  2209               	addwfc	??i2_btnAtira+3,f,c
  4748  000E06  0E28               	movlw	low i2btnAtira@pos_linha2
  4749  000E08  2408               	addwf	??i2_btnAtira+2,w,c
  4750  000E0A  6ED9               	movwf	fsr2l,c
  4751  000E0C  0E00               	movlw	high i2btnAtira@pos_linha2
  4752  000E0E  2009               	addwfc	??i2_btnAtira+3,w,c
  4753  000E10  6EDA               	movwf	fsr2h,c
  4754  000E12  50DF               	movf	indf2,w,c
  4755  000E14  ECC9  F00C         	call	i2_SetDDRamAddr
  4756                           
  4757                           ;comandos.c: 250: putrsXLCD(" ");
  4758  000E18  0E06               	movlw	low STR_1
  4759  000E1A  6E03               	movwf	i2putrsXLCD@buffer,c
  4760  000E1C  0E08               	movlw	high STR_1
  4761  000E1E  6E04               	movwf	i2putrsXLCD@buffer+1,c
  4762  000E20  EC05  F00E         	call	i2_putrsXLCD	;wreg free
  4763                           
  4764                           ;comandos.c: 251: coluna2++;
  4765  000E24  4A4A               	infsnz	i2btnAtira@coluna2,f,c
  4766  000E26  2A4B               	incf	i2btnAtira@coluna2+1,f,c
  4767                           
  4768                           ;comandos.c: 252: Delay10KTCYx(25);
  4769  000E28  0E19               	movlw	25
  4770  000E2A  EC56  F00E         	call	i2_Delay10KTCYx
  4771                           
  4772                           ;comandos.c: 253: SetDDRamAddr(pos_linha2[14]);
  4773  000E2E  5036               	movf	i2btnAtira@pos_linha2+14,w,c
  4774  000E30  ECC9  F00C         	call	i2_SetDDRamAddr
  4775                           
  4776                           ;comandos.c: 254: putrsXLCD(" ");
  4777  000E34  0E06               	movlw	low STR_1
  4778  000E36  6E03               	movwf	i2putrsXLCD@buffer,c
  4779  000E38  0E08               	movlw	high STR_1
  4780  000E3A  6E04               	movwf	i2putrsXLCD@buffer+1,c
  4781  000E3C  EC05  F00E         	call	i2_putrsXLCD	;wreg free
  4782  000E40                     i2l2845:
  4783  000E40  BE4B               	btfsc	i2btnAtira@coluna2+1,7,c
  4784  000E42  D7C6               	goto	i2l2833
  4785  000E44  504B               	movf	i2btnAtira@coluna2+1,w,c
  4786  000E46  E104               	bnz	i2l2847
  4787  000E48  0E0F               	movlw	15
  4788  000E4A  5C4A               	subwf	i2btnAtira@coluna2,w,c
  4789  000E4C  A0D8               	btfss	status,0,c
  4790  000E4E  D7C0               	goto	i2l2833
  4791  000E50                     i2l2847:
  4792                           
  4793                           ;comandos.c: 255: }
  4794                           ;comandos.c: 256: matar = 2;
  4795  000E50  0E00               	movlw	0
  4796  000E52  6E5D               	movwf	_matar+1,c
  4797  000E54  0E02               	movlw	2
  4798  000E56  6E5C               	movwf	_matar,c
  4799  000E58                     i2l2849:
  4800                           
  4801                           ;comandos.c: 257: }
  4802                           ;comandos.c: 258: if (i == 3) {
  4803  000E58  0E03               	movlw	3
  4804  000E5A  0100               	movlb	0	; () banked
  4805  000E5C  19EF               	xorwf	_i& (0+255),w,b
  4806  000E5E  0100               	movlb	0	; () banked
  4807  000E60  11F0               	iorwf	(_i+1)& (0+255),w,b
  4808  000E62  A4D8               	btfss	status,2,c
  4809  000E64  D052               	goto	i2l2873
  4810                           
  4811                           ; BSR set to: 0
  4812                           ;comandos.c: 259: SetDDRamAddr(0xD5);
  4813  000E66  0ED5               	movlw	213
  4814  000E68  ECC9  F00C         	call	i2_SetDDRamAddr
  4815                           
  4816                           ;comandos.c: 260: putrsXLCD("-");
  4817  000E6C  0E08               	movlw	low STR_46
  4818  000E6E  6E03               	movwf	i2putrsXLCD@buffer,c
  4819  000E70  0E08               	movlw	high STR_46
  4820  000E72  6E04               	movwf	i2putrsXLCD@buffer+1,c
  4821  000E74  EC05  F00E         	call	i2_putrsXLCD	;wreg free
  4822                           
  4823                           ;comandos.c: 261: int coluna3 = 1;
  4824  000E78  0E00               	movlw	0
  4825  000E7A  6E4D               	movwf	i2btnAtira@coluna3+1,c
  4826  000E7C  0E01               	movlw	1
  4827  000E7E  6E4C               	movwf	i2btnAtira@coluna3,c
  4828                           
  4829                           ;comandos.c: 262: while (coluna3 < 15) {
  4830  000E80  D038               	goto	i2l2869
  4831  000E82                     i2l2857:
  4832                           
  4833                           ;comandos.c: 263: SetDDRamAddr(pos_linha3[coluna3]);
  4834  000E82  0E37               	movlw	low i2btnAtira@pos_linha3
  4835  000E84  244C               	addwf	i2btnAtira@coluna3,w,c
  4836  000E86  6ED9               	movwf	fsr2l,c
  4837  000E88  0E00               	movlw	high i2btnAtira@pos_linha3
  4838  000E8A  204D               	addwfc	i2btnAtira@coluna3+1,w,c
  4839  000E8C  6EDA               	movwf	fsr2h,c
  4840  000E8E  50DF               	movf	indf2,w,c
  4841  000E90  ECC9  F00C         	call	i2_SetDDRamAddr
  4842                           
  4843                           ;comandos.c: 264: putrsXLCD("-");
  4844  000E94  0E08               	movlw	low STR_46
  4845  000E96  6E03               	movwf	i2putrsXLCD@buffer,c
  4846  000E98  0E08               	movlw	high STR_46
  4847  000E9A  6E04               	movwf	i2putrsXLCD@buffer+1,c
  4848  000E9C  EC05  F00E         	call	i2_putrsXLCD	;wreg free
  4849                           
  4850                           ;comandos.c: 265: SetDDRamAddr(pos_linha3[coluna3 - 1]);
  4851  000EA0  0EFF               	movlw	255
  4852  000EA2  6E06               	movwf	??i2_btnAtira& (0+255),c
  4853  000EA4  0EFF               	movlw	255
  4854  000EA6  6E07               	movwf	(??i2_btnAtira+1)& (0+255),c
  4855  000EA8  C04C  F008         	movff	i2btnAtira@coluna3,??i2_btnAtira+2
  4856  000EAC  C04D  F009         	movff	i2btnAtira@coluna3+1,??i2_btnAtira+3
  4857  000EB0  5006               	movf	??i2_btnAtira,w,c
  4858  000EB2  2608               	addwf	??i2_btnAtira+2,f,c
  4859  000EB4  5007               	movf	??i2_btnAtira+1,w,c
  4860  000EB6  2209               	addwfc	??i2_btnAtira+3,f,c
  4861  000EB8  0E37               	movlw	low i2btnAtira@pos_linha3
  4862  000EBA  2408               	addwf	??i2_btnAtira+2,w,c
  4863  000EBC  6ED9               	movwf	fsr2l,c
  4864  000EBE  0E00               	movlw	high i2btnAtira@pos_linha3
  4865  000EC0  2009               	addwfc	??i2_btnAtira+3,w,c
  4866  000EC2  6EDA               	movwf	fsr2h,c
  4867  000EC4  50DF               	movf	indf2,w,c
  4868  000EC6  ECC9  F00C         	call	i2_SetDDRamAddr
  4869                           
  4870                           ;comandos.c: 266: putrsXLCD(" ");
  4871  000ECA  0E06               	movlw	low STR_1
  4872  000ECC  6E03               	movwf	i2putrsXLCD@buffer,c
  4873  000ECE  0E08               	movlw	high STR_1
  4874  000ED0  6E04               	movwf	i2putrsXLCD@buffer+1,c
  4875  000ED2  EC05  F00E         	call	i2_putrsXLCD	;wreg free
  4876                           
  4877                           ;comandos.c: 267: coluna3++;
  4878  000ED6  4A4C               	infsnz	i2btnAtira@coluna3,f,c
  4879  000ED8  2A4D               	incf	i2btnAtira@coluna3+1,f,c
  4880                           
  4881                           ;comandos.c: 268: Delay10KTCYx(25);
  4882  000EDA  0E19               	movlw	25
  4883  000EDC  EC56  F00E         	call	i2_Delay10KTCYx
  4884                           
  4885                           ;comandos.c: 269: SetDDRamAddr(pos_linha3[14]);
  4886  000EE0  5045               	movf	i2btnAtira@pos_linha3+14,w,c
  4887  000EE2  ECC9  F00C         	call	i2_SetDDRamAddr
  4888                           
  4889                           ;comandos.c: 270: putrsXLCD(" ");
  4890  000EE6  0E06               	movlw	low STR_1
  4891  000EE8  6E03               	movwf	i2putrsXLCD@buffer,c
  4892  000EEA  0E08               	movlw	high STR_1
  4893  000EEC  6E04               	movwf	i2putrsXLCD@buffer+1,c
  4894  000EEE  EC05  F00E         	call	i2_putrsXLCD	;wreg free
  4895  000EF2                     i2l2869:
  4896  000EF2  BE4D               	btfsc	i2btnAtira@coluna3+1,7,c
  4897  000EF4  D7C6               	goto	i2l2857
  4898  000EF6  504D               	movf	i2btnAtira@coluna3+1,w,c
  4899  000EF8  E104               	bnz	i2l2871
  4900  000EFA  0E0F               	movlw	15
  4901  000EFC  5C4C               	subwf	i2btnAtira@coluna3,w,c
  4902  000EFE  A0D8               	btfss	status,0,c
  4903  000F00  D7C0               	goto	i2l2857
  4904  000F02                     i2l2871:
  4905                           
  4906                           ;comandos.c: 271: }
  4907                           ;comandos.c: 272: matar = 3;
  4908  000F02  0E00               	movlw	0
  4909  000F04  6E5D               	movwf	_matar+1,c
  4910  000F06  0E03               	movlw	3
  4911  000F08  6E5C               	movwf	_matar,c
  4912  000F0A                     i2l2873:
  4913                           
  4914                           ;comandos.c: 273: }
  4915                           ;comandos.c: 274: if (controle >= 4) {
  4916  000F0A  0100               	movlb	0	; () banked
  4917  000F0C  BFEE               	btfsc	(_controle+1)& (0+255),7,b
  4918  000F0E  0012               	return	
  4919  000F10  0100               	movlb	0	; () banked
  4920  000F12  51EE               	movf	(_controle+1)& (0+255),w,b
  4921  000F14  E105               	bnz	i2u151_40
  4922  000F16  0E04               	movlw	4
  4923  000F18  0100               	movlb	0	; () banked
  4924  000F1A  5DED               	subwf	_controle& (0+255),w,b
  4925  000F1C  A0D8               	btfss	status,0,c
  4926  000F1E  0012               	return	
  4927  000F20                     i2u151_40:
  4928                           
  4929                           ; BSR set to: 0
  4930                           ;comandos.c: 275: controle = 0;
  4931  000F20  0E00               	movlw	0
  4932  000F22  0100               	movlb	0	; () banked
  4933  000F24  6FEE               	movwf	(_controle+1)& (0+255),b
  4934  000F26  0E00               	movlw	0
  4935  000F28  6FED               	movwf	_controle& (0+255),b
  4936  000F2A  0012               	return	
  4937  000F2C                     __end_ofi2_btnAtira:
  4938                           	opt stack 0
  4939                           pclatu	equ	0xFFB
  4940                           pclath	equ	0xFFA
  4941                           tblptru	equ	0xFF8
  4942                           tblptrh	equ	0xFF7
  4943                           tblptrl	equ	0xFF6
  4944                           tablat	equ	0xFF5
  4945                           prodh	equ	0xFF4
  4946                           prodl	equ	0xFF3
  4947                           intcon	equ	0xFF2
  4948                           postinc0	equ	0xFEE
  4949                           fsr0h	equ	0xFEA
  4950                           fsr0l	equ	0xFE9
  4951                           wreg	equ	0xFE8
  4952                           postdec1	equ	0xFE5
  4953                           plusw1	equ	0xFE3
  4954                           fsr1h	equ	0xFE2
  4955                           fsr1l	equ	0xFE1
  4956                           indf2	equ	0xFDF
  4957                           plusw2	equ	0xFDB
  4958                           fsr2h	equ	0xFDA
  4959                           fsr2l	equ	0xFD9
  4960                           status	equ	0xFD8
  4961                           
  4962 ;; *************** function i2_putrsXLCD *****************
  4963 ;; Defined at:
  4964 ;;		line 16 in file "C:\Program Files (x86)\Microchip\xc8\v1.41\sources\pic18\plib\XLCD\putrxlcd.c"
  4965 ;; Parameters:    Size  Location     Type
  4966 ;;  buffer          2    2[COMRAM] PTR const unsigned char 
  4967 ;;		 -> STR_74(5), STR_73(2), STR_72(2), STR_71(2), 
  4968 ;;		 -> STR_70(2), STR_69(2), STR_68(2), STR_67(2), 
  4969 ;;		 -> STR_66(2), STR_65(2), STR_64(2), STR_63(2), 
  4970 ;;		 -> STR_62(2), STR_61(2), STR_60(2), STR_59(2), 
  4971 ;;		 -> STR_58(2), STR_57(2), STR_56(2), STR_55(2), 
  4972 ;;		 -> STR_54(2), STR_53(2), STR_52(2), STR_51(2), 
  4973 ;;		 -> STR_50(2), STR_49(2), STR_48(2), STR_47(2), 
  4974 ;;		 -> STR_46(2), STR_45(2), STR_44(2), STR_43(2), 
  4975 ;;		 -> STR_42(2), STR_41(2), STR_40(2), STR_39(2), 
  4976 ;;		 -> STR_38(2), STR_37(2), STR_36(2), STR_35(2), 
  4977 ;;		 -> STR_34(2), STR_33(2), STR_32(2), STR_31(2), 
  4978 ;;		 -> STR_30(2), STR_29(2), STR_28(2), STR_27(2), 
  4979 ;;		 -> STR_26(2), STR_25(2), STR_24(2), STR_23(2), 
  4980 ;;		 -> STR_22(2), STR_21(2), STR_20(2), STR_19(2), 
  4981 ;;		 -> STR_18(2), STR_17(2), STR_16(2), STR_15(2), 
  4982 ;;		 -> STR_14(2), STR_13(2), STR_12(2), STR_11(2), 
  4983 ;;		 -> STR_10(2), STR_9(2), STR_8(2), STR_7(2), 
  4984 ;;		 -> STR_6(2), STR_5(2), STR_4(2), STR_3(2), 
  4985 ;;		 -> STR_2(2), STR_1(2), 
  4986 ;; Auto vars:     Size  Location     Type
  4987 ;;		None
  4988 ;; Return value:  Size  Location     Type
  4989 ;;                  1    wreg      void 
  4990 ;; Registers used:
  4991 ;;		wreg, status,2, status,0, tblptrl, tblptrh, tblptru, cstack
  4992 ;; Tracked objects:
  4993 ;;		On entry : 0/0
  4994 ;;		On exit  : 0/0
  4995 ;;		Unchanged: 0/0
  4996 ;; Data sizes:     COMRAM   BANK0   BANK1   BANK2   BANK3   BANK4   BANK5   BANK6   BANK7
  4997 ;;      Params:         2       0       0       0       0       0       0       0       0
  4998 ;;      Locals:         0       0       0       0       0       0       0       0       0
  4999 ;;      Temps:          0       0       0       0       0       0       0       0       0
  5000 ;;      Totals:         2       0       0       0       0       0       0       0       0
  5001 ;;Total ram usage:        2 bytes
  5002 ;; Hardware stack levels used:    1
  5003 ;; Hardware stack levels required when called:    3
  5004 ;; This function calls:
  5005 ;;		i2_BusyXLCD
  5006 ;;		i2_WriteDataXLCD
  5007 ;; This function is called by:
  5008 ;;		i2_btnDireito
  5009 ;;		i2_btnEsquerdo
  5010 ;;		i2_btnAtira
  5011 ;; This function uses a non-reentrant model
  5012 ;;
  5013                           
  5014                           	psect	text22
  5015  001C0A                     __ptext22:
  5016                           	opt stack 0
  5017  001C0A                     i2_putrsXLCD:
  5018                           	opt stack 20
  5019                           
  5020                           ; BSR set to: 0
  5021                           ;incstack = 0
  5022  001C0A  D00F               	goto	i2l2293
  5023  001C0C                     i2l2287:
  5024  001C0C  ECCD  F00D         	call	i2_BusyXLCD	;wreg free
  5025  001C10  0900               	iorlw	0
  5026  001C12  A4D8               	btfss	status,2,c
  5027  001C14  D7FB               	goto	i2l2287
  5028  001C16  C003  FFF6         	movff	i2putrsXLCD@buffer,tblptrl
  5029  001C1A  C004  FFF7         	movff	i2putrsXLCD@buffer+1,tblptrh
  5030  001C1E                     	if	0	;tblptru may be non-zero
  5031  001C1E                     	endif
  5032  001C1E                     	if	0	;tblptru may be non-zero
  5033  001C1E                     	endif
  5034  001C1E  0008               	tblrd		*
  5035  001C20  50F5               	movf	tablat,w,c
  5036  001C22  EC56  F00D         	call	i2_WriteDataXLCD
  5037  001C26  4A03               	infsnz	i2putrsXLCD@buffer,f,c
  5038  001C28  2A04               	incf	i2putrsXLCD@buffer+1,f,c
  5039  001C2A                     i2l2293:
  5040  001C2A  C003  FFF6         	movff	i2putrsXLCD@buffer,tblptrl
  5041  001C2E  C004  FFF7         	movff	i2putrsXLCD@buffer+1,tblptrh
  5042  001C32                     	if	0	;tblptru may be non-zero
  5043  001C32                     	endif
  5044  001C32                     	if	0	;tblptru may be non-zero
  5045  001C32                     	endif
  5046  001C32  0008               	tblrd		*
  5047  001C34  50F5               	movf	tablat,w,c
  5048  001C36  0900               	iorlw	0
  5049  001C38  B4D8               	btfsc	status,2,c
  5050  001C3A  0012               	return	
  5051  001C3C  D7E7               	goto	i2l2287
  5052  001C3E                     __end_ofi2_putrsXLCD:
  5053                           	opt stack 0
  5054                           pclatu	equ	0xFFB
  5055                           pclath	equ	0xFFA
  5056                           tblptru	equ	0xFF8
  5057                           tblptrh	equ	0xFF7
  5058                           tblptrl	equ	0xFF6
  5059                           tablat	equ	0xFF5
  5060                           prodh	equ	0xFF4
  5061                           prodl	equ	0xFF3
  5062                           intcon	equ	0xFF2
  5063                           postinc0	equ	0xFEE
  5064                           fsr0h	equ	0xFEA
  5065                           fsr0l	equ	0xFE9
  5066                           wreg	equ	0xFE8
  5067                           postdec1	equ	0xFE5
  5068                           plusw1	equ	0xFE3
  5069                           fsr1h	equ	0xFE2
  5070                           fsr1l	equ	0xFE1
  5071                           indf2	equ	0xFDF
  5072                           plusw2	equ	0xFDB
  5073                           fsr2h	equ	0xFDA
  5074                           fsr2l	equ	0xFD9
  5075                           status	equ	0xFD8
  5076                           
  5077 ;; *************** function i2_WriteDataXLCD *****************
  5078 ;; Defined at:
  5079 ;;		line 16 in file "C:\Program Files (x86)\Microchip\xc8\v1.41\sources\pic18\plib\XLCD\writdata.c"
  5080 ;; Parameters:    Size  Location     Type
  5081 ;;  data            1    wreg     unsigned char 
  5082 ;; Auto vars:     Size  Location     Type
  5083 ;;  data            1    1[COMRAM] unsigned char 
  5084 ;; Return value:  Size  Location     Type
  5085 ;;                  1    wreg      void 
  5086 ;; Registers used:
  5087 ;;		wreg, status,2, status,0, cstack
  5088 ;; Tracked objects:
  5089 ;;		On entry : 0/0
  5090 ;;		On exit  : 0/0
  5091 ;;		Unchanged: 0/0
  5092 ;; Data sizes:     COMRAM   BANK0   BANK1   BANK2   BANK3   BANK4   BANK5   BANK6   BANK7
  5093 ;;      Params:         0       0       0       0       0       0       0       0       0
  5094 ;;      Locals:         1       0       0       0       0       0       0       0       0
  5095 ;;      Temps:          0       0       0       0       0       0       0       0       0
  5096 ;;      Totals:         1       0       0       0       0       0       0       0       0
  5097 ;;Total ram usage:        1 bytes
  5098 ;; Hardware stack levels used:    1
  5099 ;; Hardware stack levels required when called:    2
  5100 ;; This function calls:
  5101 ;;		i2_DelayFor18TCY
  5102 ;; This function is called by:
  5103 ;;		i2_putrsXLCD
  5104 ;; This function uses a non-reentrant model
  5105 ;;
  5106                           
  5107                           	psect	text23
  5108  001AAC                     __ptext23:
  5109                           	opt stack 0
  5110  001AAC                     i2_WriteDataXLCD:
  5111                           	opt stack 20
  5112                           
  5113                           ;incstack = 0
  5114                           ;i2WriteDataXLCD@data stored from wreg
  5115  001AAC  6E02               	movwf	i2WriteDataXLCD@data,c
  5116  001AAE  0EF0               	movlw	240
  5117  001AB0  1693               	andwf	3987,f,c	;volatile
  5118  001AB2  0EF0               	movlw	240
  5119  001AB4  1681               	andwf	3969,f,c	;volatile
  5120  001AB6  3802               	swapf	i2WriteDataXLCD@data,w,c
  5121  001AB8  0B0F               	andlw	15
  5122  001ABA  0B0F               	andlw	15
  5123  001ABC  1281               	iorwf	3969,f,c	;volatile
  5124  001ABE  8A8A               	bsf	3978,5,c	;volatile
  5125  001AC0  9C8A               	bcf	3978,6,c	;volatile
  5126  001AC2  EC85  F00E         	call	i2_DelayFor18TCY	;wreg free
  5127  001AC6  888A               	bsf	3978,4,c	;volatile
  5128  001AC8  EC85  F00E         	call	i2_DelayFor18TCY	;wreg free
  5129  001ACC  988A               	bcf	3978,4,c	;volatile
  5130  001ACE  0EF0               	movlw	240
  5131  001AD0  1681               	andwf	3969,f,c	;volatile
  5132  001AD2  5002               	movf	i2WriteDataXLCD@data,w,c
  5133  001AD4  0B0F               	andlw	15
  5134  001AD6  1281               	iorwf	3969,f,c	;volatile
  5135  001AD8  EC85  F00E         	call	i2_DelayFor18TCY	;wreg free
  5136  001ADC  888A               	bsf	3978,4,c	;volatile
  5137  001ADE  EC85  F00E         	call	i2_DelayFor18TCY	;wreg free
  5138  001AE2  988A               	bcf	3978,4,c	;volatile
  5139  001AE4  0E0F               	movlw	15
  5140  001AE6  1293               	iorwf	3987,f,c	;volatile
  5141  001AE8  0012               	return	
  5142  001AEA                     __end_ofi2_WriteDataXLCD:
  5143                           	opt stack 0
  5144                           pclatu	equ	0xFFB
  5145                           pclath	equ	0xFFA
  5146                           tblptru	equ	0xFF8
  5147                           tblptrh	equ	0xFF7
  5148                           tblptrl	equ	0xFF6
  5149                           tablat	equ	0xFF5
  5150                           prodh	equ	0xFF4
  5151                           prodl	equ	0xFF3
  5152                           intcon	equ	0xFF2
  5153                           postinc0	equ	0xFEE
  5154                           fsr0h	equ	0xFEA
  5155                           fsr0l	equ	0xFE9
  5156                           wreg	equ	0xFE8
  5157                           postdec1	equ	0xFE5
  5158                           plusw1	equ	0xFE3
  5159                           fsr1h	equ	0xFE2
  5160                           fsr1l	equ	0xFE1
  5161                           indf2	equ	0xFDF
  5162                           plusw2	equ	0xFDB
  5163                           fsr2h	equ	0xFDA
  5164                           fsr2l	equ	0xFD9
  5165                           status	equ	0xFD8
  5166                           
  5167 ;; *************** function i2_BusyXLCD *****************
  5168 ;; Defined at:
  5169 ;;		line 11 in file "C:\Program Files (x86)\Microchip\xc8\v1.41\sources\pic18\plib\XLCD\busyxlcd.c"
  5170 ;; Parameters:    Size  Location     Type
  5171 ;;		None
  5172 ;; Auto vars:     Size  Location     Type
  5173 ;;		None
  5174 ;; Return value:  Size  Location     Type
  5175 ;;                  1    wreg      unsigned char 
  5176 ;; Registers used:
  5177 ;;		wreg, cstack
  5178 ;; Tracked objects:
  5179 ;;		On entry : 0/0
  5180 ;;		On exit  : 0/0
  5181 ;;		Unchanged: 0/0
  5182 ;; Data sizes:     COMRAM   BANK0   BANK1   BANK2   BANK3   BANK4   BANK5   BANK6   BANK7
  5183 ;;      Params:         0       0       0       0       0       0       0       0       0
  5184 ;;      Locals:         0       0       0       0       0       0       0       0       0
  5185 ;;      Temps:          0       0       0       0       0       0       0       0       0
  5186 ;;      Totals:         0       0       0       0       0       0       0       0       0
  5187 ;;Total ram usage:        0 bytes
  5188 ;; Hardware stack levels used:    1
  5189 ;; Hardware stack levels required when called:    2
  5190 ;; This function calls:
  5191 ;;		i2_DelayFor18TCY
  5192 ;; This function is called by:
  5193 ;;		i2_putrsXLCD
  5194 ;; This function uses a non-reentrant model
  5195 ;;
  5196                           
  5197                           	psect	text24
  5198  001B9A                     __ptext24:
  5199                           	opt stack 0
  5200  001B9A                     i2_BusyXLCD:
  5201                           	opt stack 20
  5202                           
  5203                           ;incstack = 0
  5204  001B9A  8C8A               	bsf	3978,6,c	;volatile
  5205  001B9C  9A8A               	bcf	3978,5,c	;volatile
  5206  001B9E  EC85  F00E         	call	i2_DelayFor18TCY	;wreg free
  5207  001BA2  888A               	bsf	3978,4,c	;volatile
  5208  001BA4  EC85  F00E         	call	i2_DelayFor18TCY	;wreg free
  5209  001BA8  A681               	btfss	3969,3,c	;volatile
  5210  001BAA  D00A               	goto	i2l280
  5211  001BAC  988A               	bcf	3978,4,c	;volatile
  5212  001BAE  EC85  F00E         	call	i2_DelayFor18TCY	;wreg free
  5213  001BB2  888A               	bsf	3978,4,c	;volatile
  5214  001BB4  EC85  F00E         	call	i2_DelayFor18TCY	;wreg free
  5215  001BB8  988A               	bcf	3978,4,c	;volatile
  5216  001BBA  9C8A               	bcf	3978,6,c	;volatile
  5217  001BBC  0E01               	movlw	1
  5218  001BBE  0012               	return	
  5219  001BC0                     i2l280:
  5220  001BC0  988A               	bcf	3978,4,c	;volatile
  5221  001BC2  EC85  F00E         	call	i2_DelayFor18TCY	;wreg free
  5222  001BC6  888A               	bsf	3978,4,c	;volatile
  5223  001BC8  EC85  F00E         	call	i2_DelayFor18TCY	;wreg free
  5224  001BCC  988A               	bcf	3978,4,c	;volatile
  5225  001BCE  9C8A               	bcf	3978,6,c	;volatile
  5226  001BD0  0E00               	movlw	0
  5227  001BD2  0012               	return	
  5228  001BD4                     __end_ofi2_BusyXLCD:
  5229                           	opt stack 0
  5230                           pclatu	equ	0xFFB
  5231                           pclath	equ	0xFFA
  5232                           tblptru	equ	0xFF8
  5233                           tblptrh	equ	0xFF7
  5234                           tblptrl	equ	0xFF6
  5235                           tablat	equ	0xFF5
  5236                           prodh	equ	0xFF4
  5237                           prodl	equ	0xFF3
  5238                           intcon	equ	0xFF2
  5239                           postinc0	equ	0xFEE
  5240                           fsr0h	equ	0xFEA
  5241                           fsr0l	equ	0xFE9
  5242                           wreg	equ	0xFE8
  5243                           postdec1	equ	0xFE5
  5244                           plusw1	equ	0xFE3
  5245                           fsr1h	equ	0xFE2
  5246                           fsr1l	equ	0xFE1
  5247                           indf2	equ	0xFDF
  5248                           plusw2	equ	0xFDB
  5249                           fsr2h	equ	0xFDA
  5250                           fsr2l	equ	0xFD9
  5251                           status	equ	0xFD8
  5252                           
  5253 ;; *************** function i2_SetDDRamAddr *****************
  5254 ;; Defined at:
  5255 ;;		line 13 in file "C:\Program Files (x86)\Microchip\xc8\v1.41\sources\pic18\plib\XLCD\setddram.c"
  5256 ;; Parameters:    Size  Location     Type
  5257 ;;  DDaddr          1    wreg     unsigned char 
  5258 ;; Auto vars:     Size  Location     Type
  5259 ;;  DDaddr          1    4[COMRAM] unsigned char 
  5260 ;; Return value:  Size  Location     Type
  5261 ;;                  1    wreg      void 
  5262 ;; Registers used:
  5263 ;;		wreg, status,2, status,0, cstack
  5264 ;; Tracked objects:
  5265 ;;		On entry : 0/0
  5266 ;;		On exit  : 0/0
  5267 ;;		Unchanged: 0/0
  5268 ;; Data sizes:     COMRAM   BANK0   BANK1   BANK2   BANK3   BANK4   BANK5   BANK6   BANK7
  5269 ;;      Params:         0       0       0       0       0       0       0       0       0
  5270 ;;      Locals:         1       0       0       0       0       0       0       0       0
  5271 ;;      Temps:          3       0       0       0       0       0       0       0       0
  5272 ;;      Totals:         4       0       0       0       0       0       0       0       0
  5273 ;;Total ram usage:        4 bytes
  5274 ;; Hardware stack levels used:    1
  5275 ;; Hardware stack levels required when called:    2
  5276 ;; This function calls:
  5277 ;;		i2_DelayFor18TCY
  5278 ;; This function is called by:
  5279 ;;		i2_btnDireito
  5280 ;;		i2_btnEsquerdo
  5281 ;;		i2_btnAtira
  5282 ;; This function uses a non-reentrant model
  5283 ;;
  5284                           
  5285                           	psect	text25
  5286  001992                     __ptext25:
  5287                           	opt stack 0
  5288  001992                     i2_SetDDRamAddr:
  5289                           	opt stack 21
  5290                           
  5291                           ;incstack = 0
  5292                           ;i2SetDDRamAddr@DDaddr stored from wreg
  5293  001992  6E05               	movwf	i2SetDDRamAddr@DDaddr,c
  5294  001994  0EF0               	movlw	240
  5295  001996  1693               	andwf	3987,f,c	;volatile
  5296  001998  0EF0               	movlw	240
  5297  00199A  1681               	andwf	3969,f,c	;volatile
  5298  00199C  5005               	movf	i2SetDDRamAddr@DDaddr,w,c
  5299  00199E  6E02               	movwf	??i2_SetDDRamAddr& (0+255),c
  5300  0019A0  6A03               	clrf	(??i2_SetDDRamAddr+1)& (0+255),c
  5301  0019A2  8E02               	bsf	??i2_SetDDRamAddr,7,c
  5302  0019A4  0E04               	movlw	4
  5303  0019A6  6E04               	movwf	(??i2_SetDDRamAddr+2)& (0+255),c
  5304  0019A8                     i2u104_45:
  5305  0019A8  3403               	rlcf	??i2_SetDDRamAddr+1,w,c
  5306  0019AA  3203               	rrcf	??i2_SetDDRamAddr+1,f,c
  5307  0019AC  3202               	rrcf	??i2_SetDDRamAddr,f,c
  5308  0019AE  2E04               	decfsz	(??i2_SetDDRamAddr+2)& (0+255),f,c
  5309  0019B0  D7FB               	goto	i2u104_45
  5310  0019B2  5002               	movf	??i2_SetDDRamAddr,w,c
  5311  0019B4  0B0F               	andlw	15
  5312  0019B6  1281               	iorwf	3969,f,c	;volatile
  5313  0019B8  9C8A               	bcf	3978,6,c	;volatile
  5314  0019BA  9A8A               	bcf	3978,5,c	;volatile
  5315  0019BC  EC85  F00E         	call	i2_DelayFor18TCY	;wreg free
  5316  0019C0  888A               	bsf	3978,4,c	;volatile
  5317  0019C2  EC85  F00E         	call	i2_DelayFor18TCY	;wreg free
  5318  0019C6  988A               	bcf	3978,4,c	;volatile
  5319  0019C8  0EF0               	movlw	240
  5320  0019CA  1681               	andwf	3969,f,c	;volatile
  5321  0019CC  5005               	movf	i2SetDDRamAddr@DDaddr,w,c
  5322  0019CE  0B0F               	andlw	15
  5323  0019D0  1281               	iorwf	3969,f,c	;volatile
  5324  0019D2  EC85  F00E         	call	i2_DelayFor18TCY	;wreg free
  5325  0019D6  888A               	bsf	3978,4,c	;volatile
  5326  0019D8  EC85  F00E         	call	i2_DelayFor18TCY	;wreg free
  5327  0019DC  988A               	bcf	3978,4,c	;volatile
  5328  0019DE  0E0F               	movlw	15
  5329  0019E0  1293               	iorwf	3987,f,c	;volatile
  5330  0019E2  0012               	return	
  5331  0019E4                     __end_ofi2_SetDDRamAddr:
  5332                           	opt stack 0
  5333                           pclatu	equ	0xFFB
  5334                           pclath	equ	0xFFA
  5335                           tblptru	equ	0xFF8
  5336                           tblptrh	equ	0xFF7
  5337                           tblptrl	equ	0xFF6
  5338                           tablat	equ	0xFF5
  5339                           prodh	equ	0xFF4
  5340                           prodl	equ	0xFF3
  5341                           intcon	equ	0xFF2
  5342                           postinc0	equ	0xFEE
  5343                           fsr0h	equ	0xFEA
  5344                           fsr0l	equ	0xFE9
  5345                           wreg	equ	0xFE8
  5346                           postdec1	equ	0xFE5
  5347                           plusw1	equ	0xFE3
  5348                           fsr1h	equ	0xFE2
  5349                           fsr1l	equ	0xFE1
  5350                           indf2	equ	0xFDF
  5351                           plusw2	equ	0xFDB
  5352                           fsr2h	equ	0xFDA
  5353                           fsr2l	equ	0xFD9
  5354                           status	equ	0xFD8
  5355                           
  5356 ;; *************** function i2_DelayFor18TCY *****************
  5357 ;; Defined at:
  5358 ;;		line 9 in file "display.c"
  5359 ;; Parameters:    Size  Location     Type
  5360 ;;		None
  5361 ;; Auto vars:     Size  Location     Type
  5362 ;;		None
  5363 ;; Return value:  Size  Location     Type
  5364 ;;                  1    wreg      void 
  5365 ;; Registers used:
  5366 ;;		wreg, cstack
  5367 ;; Tracked objects:
  5368 ;;		On entry : 0/0
  5369 ;;		On exit  : 0/0
  5370 ;;		Unchanged: 0/0
  5371 ;; Data sizes:     COMRAM   BANK0   BANK1   BANK2   BANK3   BANK4   BANK5   BANK6   BANK7
  5372 ;;      Params:         0       0       0       0       0       0       0       0       0
  5373 ;;      Locals:         0       0       0       0       0       0       0       0       0
  5374 ;;      Temps:          0       0       0       0       0       0       0       0       0
  5375 ;;      Totals:         0       0       0       0       0       0       0       0       0
  5376 ;;Total ram usage:        0 bytes
  5377 ;; Hardware stack levels used:    1
  5378 ;; Hardware stack levels required when called:    1
  5379 ;; This function calls:
  5380 ;;		i2_Delay10TCYx
  5381 ;; This function is called by:
  5382 ;;		i2_BusyXLCD
  5383 ;;		i2_SetDDRamAddr
  5384 ;;		i2_WriteDataXLCD
  5385 ;; This function uses a non-reentrant model
  5386 ;;
  5387                           
  5388                           	psect	text26
  5389  001D0A                     __ptext26:
  5390                           	opt stack 0
  5391  001D0A                     i2_DelayFor18TCY:
  5392                           	opt stack 20
  5393                           
  5394                           ;display.c: 10: Delay10TCYx(120);
  5395                           
  5396                           ;incstack = 0
  5397  001D0A  0E78               	movlw	120
  5398  001D0C  EC75  F00E         	call	i2_Delay10TCYx
  5399  001D10  0012               	return		;funcret
  5400  001D12                     __end_ofi2_DelayFor18TCY:
  5401                           	opt stack 0
  5402                           pclatu	equ	0xFFB
  5403                           pclath	equ	0xFFA
  5404                           tblptru	equ	0xFF8
  5405                           tblptrh	equ	0xFF7
  5406                           tblptrl	equ	0xFF6
  5407                           tablat	equ	0xFF5
  5408                           prodh	equ	0xFF4
  5409                           prodl	equ	0xFF3
  5410                           intcon	equ	0xFF2
  5411                           postinc0	equ	0xFEE
  5412                           fsr0h	equ	0xFEA
  5413                           fsr0l	equ	0xFE9
  5414                           wreg	equ	0xFE8
  5415                           postdec1	equ	0xFE5
  5416                           plusw1	equ	0xFE3
  5417                           fsr1h	equ	0xFE2
  5418                           fsr1l	equ	0xFE1
  5419                           indf2	equ	0xFDF
  5420                           plusw2	equ	0xFDB
  5421                           fsr2h	equ	0xFDA
  5422                           fsr2l	equ	0xFD9
  5423                           status	equ	0xFD8
  5424                           
  5425 ;; *************** function i2_Delay10TCYx *****************
  5426 ;; Defined at:
  5427 ;;		line 8 in file "C:\Program Files (x86)\Microchip\xc8\v1.41\sources\pic18\d10tcyx.c"
  5428 ;; Parameters:    Size  Location     Type
  5429 ;;  unit            1    wreg     unsigned char 
  5430 ;; Auto vars:     Size  Location     Type
  5431 ;;  unit            1    0[COMRAM] unsigned char 
  5432 ;; Return value:  Size  Location     Type
  5433 ;;                  1    wreg      void 
  5434 ;; Registers used:
  5435 ;;		wreg
  5436 ;; Tracked objects:
  5437 ;;		On entry : 0/0
  5438 ;;		On exit  : 0/0
  5439 ;;		Unchanged: 0/0
  5440 ;; Data sizes:     COMRAM   BANK0   BANK1   BANK2   BANK3   BANK4   BANK5   BANK6   BANK7
  5441 ;;      Params:         0       0       0       0       0       0       0       0       0
  5442 ;;      Locals:         1       0       0       0       0       0       0       0       0
  5443 ;;      Temps:          0       0       0       0       0       0       0       0       0
  5444 ;;      Totals:         1       0       0       0       0       0       0       0       0
  5445 ;;Total ram usage:        1 bytes
  5446 ;; Hardware stack levels used:    1
  5447 ;; This function calls:
  5448 ;;		Nothing
  5449 ;; This function is called by:
  5450 ;;		i2_DelayFor18TCY
  5451 ;; This function uses a non-reentrant model
  5452 ;;
  5453                           
  5454                           	psect	text27
  5455  001CEA                     __ptext27:
  5456                           	opt stack 0
  5457  001CEA                     i2_Delay10TCYx:
  5458                           	opt stack 20
  5459                           
  5460                           ;incstack = 0
  5461                           ;i2Delay10TCYx@unit stored from wreg
  5462  001CEA  6E01               	movwf	i2Delay10TCYx@unit,c
  5463  001CEC  0E03               	movlw	3
  5464  001CEE                     i2u182_47:
  5465  001CEE  2EE8               	decfsz	wreg,f,c
  5466  001CF0  D7FE               	bra	i2u182_47
  5467  001CF2  F000               	nop	
  5468  001CF4  2E01               	decfsz	i2Delay10TCYx@unit,f,c
  5469  001CF6  D7FA               	goto	i2l2033
  5470  001CF8  0012               	return	
  5471  001CFA                     __end_ofi2_Delay10TCYx:
  5472                           	opt stack 0
  5473                           pclatu	equ	0xFFB
  5474                           pclath	equ	0xFFA
  5475                           tblptru	equ	0xFF8
  5476                           tblptrh	equ	0xFF7
  5477                           tblptrl	equ	0xFF6
  5478                           tablat	equ	0xFF5
  5479                           prodh	equ	0xFF4
  5480                           prodl	equ	0xFF3
  5481                           intcon	equ	0xFF2
  5482                           postinc0	equ	0xFEE
  5483                           fsr0h	equ	0xFEA
  5484                           fsr0l	equ	0xFE9
  5485                           wreg	equ	0xFE8
  5486                           postdec1	equ	0xFE5
  5487                           plusw1	equ	0xFE3
  5488                           fsr1h	equ	0xFE2
  5489                           fsr1l	equ	0xFE1
  5490                           indf2	equ	0xFDF
  5491                           plusw2	equ	0xFDB
  5492                           fsr2h	equ	0xFDA
  5493                           fsr2l	equ	0xFD9
  5494                           status	equ	0xFD8
  5495                           
  5496 ;; *************** function i2_Delay10KTCYx *****************
  5497 ;; Defined at:
  5498 ;;		line 8 in file "C:\Program Files (x86)\Microchip\xc8\v1.41\sources\pic18\d10ktcyx.c"
  5499 ;; Parameters:    Size  Location     Type
  5500 ;;  unit            1    wreg     unsigned char 
  5501 ;; Auto vars:     Size  Location     Type
  5502 ;;  unit            1    1[COMRAM] unsigned char 
  5503 ;; Return value:  Size  Location     Type
  5504 ;;                  1    wreg      void 
  5505 ;; Registers used:
  5506 ;;		wreg
  5507 ;; Tracked objects:
  5508 ;;		On entry : 0/0
  5509 ;;		On exit  : 0/0
  5510 ;;		Unchanged: 0/0
  5511 ;; Data sizes:     COMRAM   BANK0   BANK1   BANK2   BANK3   BANK4   BANK5   BANK6   BANK7
  5512 ;;      Params:         0       0       0       0       0       0       0       0       0
  5513 ;;      Locals:         1       0       0       0       0       0       0       0       0
  5514 ;;      Temps:          1       0       0       0       0       0       0       0       0
  5515 ;;      Totals:         2       0       0       0       0       0       0       0       0
  5516 ;;Total ram usage:        2 bytes
  5517 ;; Hardware stack levels used:    1
  5518 ;; This function calls:
  5519 ;;		Nothing
  5520 ;; This function is called by:
  5521 ;;		i2_btnAtira
  5522 ;; This function uses a non-reentrant model
  5523 ;;
  5524                           
  5525                           	psect	text28
  5526  001CAC                     __ptext28:
  5527                           	opt stack 0
  5528  001CAC                     i2_Delay10KTCYx:
  5529                           	opt stack 23
  5530                           
  5531                           ;incstack = 0
  5532                           ;i2Delay10KTCYx@unit stored from wreg
  5533  001CAC  6E02               	movwf	i2Delay10KTCYx@unit,c
  5534  001CAE  0E0D               	movlw	13
  5535  001CB0  6E01               	movwf	??i2_Delay10KTCYx& (0+255),c
  5536  001CB2  0EFC               	movlw	252
  5537  001CB4                     i2u183_47:
  5538  001CB4  2EE8               	decfsz	wreg,f,c
  5539  001CB6  D7FE               	bra	i2u183_47
  5540  001CB8  2E01               	decfsz	??i2_Delay10KTCYx& (0+255),f,c
  5541  001CBA  D7FC               	bra	i2u183_47
  5542  001CBC  2E02               	decfsz	i2Delay10KTCYx@unit,f,c
  5543  001CBE  D7F7               	goto	i2l2319
  5544  001CC0  0012               	return	
  5545  001CC2                     __end_ofi2_Delay10KTCYx:
  5546                           	opt stack 0
  5547                           pclatu	equ	0xFFB
  5548                           pclath	equ	0xFFA
  5549                           tblptru	equ	0xFF8
  5550                           tblptrh	equ	0xFF7
  5551                           tblptrl	equ	0xFF6
  5552                           tablat	equ	0xFF5
  5553                           prodh	equ	0xFF4
  5554                           prodl	equ	0xFF3
  5555                           intcon	equ	0xFF2
  5556                           postinc0	equ	0xFEE
  5557                           fsr0h	equ	0xFEA
  5558                           fsr0l	equ	0xFE9
  5559                           wreg	equ	0xFE8
  5560                           postdec1	equ	0xFE5
  5561                           plusw1	equ	0xFE3
  5562                           fsr1h	equ	0xFE2
  5563                           fsr1l	equ	0xFE1
  5564                           indf2	equ	0xFDF
  5565                           plusw2	equ	0xFDB
  5566                           fsr2h	equ	0xFDA
  5567                           fsr2l	equ	0xFD9
  5568                           status	equ	0xFD8
  5569                           
  5570 ;; *************** function _rotina_segundo *****************
  5571 ;; Defined at:
  5572 ;;		line 54 in file "comandos.c"
  5573 ;; Parameters:    Size  Location     Type
  5574 ;;		None
  5575 ;; Auto vars:     Size  Location     Type
  5576 ;;		None
  5577 ;; Return value:  Size  Location     Type
  5578 ;;                  1    wreg      void 
  5579 ;; Registers used:
  5580 ;;		status,2, status,0
  5581 ;; Tracked objects:
  5582 ;;		On entry : 0/0
  5583 ;;		On exit  : 0/0
  5584 ;;		Unchanged: 0/0
  5585 ;; Data sizes:     COMRAM   BANK0   BANK1   BANK2   BANK3   BANK4   BANK5   BANK6   BANK7
  5586 ;;      Params:         0       0       0       0       0       0       0       0       0
  5587 ;;      Locals:         0       0       0       0       0       0       0       0       0
  5588 ;;      Temps:          0       0       0       0       0       0       0       0       0
  5589 ;;      Totals:         0       0       0       0       0       0       0       0       0
  5590 ;;Total ram usage:        0 bytes
  5591 ;; Hardware stack levels used:    1
  5592 ;; This function calls:
  5593 ;;		Nothing
  5594 ;; This function is called by:
  5595 ;;		_InterruptPic
  5596 ;; This function uses a non-reentrant model
  5597 ;;
  5598                           
  5599                           	psect	text29
  5600  001D12                     __ptext29:
  5601                           	opt stack 0
  5602  001D12                     _rotina_segundo:
  5603                           	opt stack 24
  5604                           
  5605                           ;comandos.c: 56: cont_seg++;
  5606                           
  5607                           ;incstack = 0
  5608  001D12  0100               	movlb	0	; () banked
  5609  001D14  4BF1               	infsnz	_cont_seg& (0+255),f,b
  5610  001D16  2BF2               	incf	(_cont_seg+1)& (0+255),f,b
  5611                           
  5612                           ; BSR set to: 0
  5613  001D18  0012               	return		;funcret
  5614  001D1A                     __end_of_rotina_segundo:
  5615                           	opt stack 0
  5616                           pclatu	equ	0xFFB
  5617                           pclath	equ	0xFFA
  5618                           tblptru	equ	0xFF8
  5619                           tblptrh	equ	0xFF7
  5620                           tblptrl	equ	0xFF6
  5621                           tablat	equ	0xFF5
  5622                           prodh	equ	0xFF4
  5623                           prodl	equ	0xFF3
  5624                           intcon	equ	0xFF2
  5625                           postinc0	equ	0xFEE
  5626                           fsr0h	equ	0xFEA
  5627                           fsr0l	equ	0xFE9
  5628                           wreg	equ	0xFE8
  5629                           postdec1	equ	0xFE5
  5630                           plusw1	equ	0xFE3
  5631                           fsr1h	equ	0xFE2
  5632                           fsr1l	equ	0xFE1
  5633                           indf2	equ	0xFDF
  5634                           plusw2	equ	0xFDB
  5635                           fsr2h	equ	0xFDA
  5636                           fsr2l	equ	0xFD9
  5637                           status	equ	0xFD8
  5638                           pclatu	equ	0xFFB
  5639                           pclath	equ	0xFFA
  5640                           tblptru	equ	0xFF8
  5641                           tblptrh	equ	0xFF7
  5642                           tblptrl	equ	0xFF6
  5643                           tablat	equ	0xFF5
  5644                           prodh	equ	0xFF4
  5645                           prodl	equ	0xFF3
  5646                           intcon	equ	0xFF2
  5647                           postinc0	equ	0xFEE
  5648                           fsr0h	equ	0xFEA
  5649                           fsr0l	equ	0xFE9
  5650                           wreg	equ	0xFE8
  5651                           postdec1	equ	0xFE5
  5652                           plusw1	equ	0xFE3
  5653                           fsr1h	equ	0xFE2
  5654                           fsr1l	equ	0xFE1
  5655                           indf2	equ	0xFDF
  5656                           plusw2	equ	0xFDB
  5657                           fsr2h	equ	0xFDA
  5658                           fsr2l	equ	0xFD9
  5659                           status	equ	0xFD8
  5660                           
  5661                           	psect	rparam
  5662  0000                     pclatu	equ	0xFFB
  5663                           pclath	equ	0xFFA
  5664                           tblptru	equ	0xFF8
  5665                           tblptrh	equ	0xFF7
  5666                           tblptrl	equ	0xFF6
  5667                           tablat	equ	0xFF5
  5668                           prodh	equ	0xFF4
  5669                           prodl	equ	0xFF3
  5670                           intcon	equ	0xFF2
  5671                           postinc0	equ	0xFEE
  5672                           fsr0h	equ	0xFEA
  5673                           fsr0l	equ	0xFE9
  5674                           wreg	equ	0xFE8
  5675                           postdec1	equ	0xFE5
  5676                           plusw1	equ	0xFE3
  5677                           fsr1h	equ	0xFE2
  5678                           fsr1l	equ	0xFE1
  5679                           indf2	equ	0xFDF
  5680                           plusw2	equ	0xFDB
  5681                           fsr2h	equ	0xFDA
  5682                           fsr2l	equ	0xFD9
  5683                           status	equ	0xFD8
  5684                           
  5685                           	psect	temp
  5686  00005E                     btemp:
  5687                           	opt stack 0
  5688  00005E                     	ds	1
  5689  0000                     int$flags	set	btemp
  5690                           pclatu	equ	0xFFB
  5691                           pclath	equ	0xFFA
  5692                           tblptru	equ	0xFF8
  5693                           tblptrh	equ	0xFF7
  5694                           tblptrl	equ	0xFF6
  5695                           tablat	equ	0xFF5
  5696                           prodh	equ	0xFF4
  5697                           prodl	equ	0xFF3
  5698                           intcon	equ	0xFF2
  5699                           postinc0	equ	0xFEE
  5700                           fsr0h	equ	0xFEA
  5701                           fsr0l	equ	0xFE9
  5702                           wreg	equ	0xFE8
  5703                           postdec1	equ	0xFE5
  5704                           plusw1	equ	0xFE3
  5705                           fsr1h	equ	0xFE2
  5706                           fsr1l	equ	0xFE1
  5707                           indf2	equ	0xFDF
  5708                           plusw2	equ	0xFDB
  5709                           fsr2h	equ	0xFDA
  5710                           fsr2l	equ	0xFD9
  5711                           status	equ	0xFD8


Data Sizes:
    Strings     13
    Constant    0
    Data        124
    BSS         14
    Persistent  0
    Stack       0

Auto Spaces:
    Space          Size  Autos    Used
    COMRAM           94     91      93
    BANK0           160     77     153
    BANK1           256      0      60
    BANK2           256      0       0
    BANK3           256      0       0
    BANK4           256      0       0
    BANK5           256      0       0
    BANK6           256      0       0
    BANK7           256      0       0

Pointer List with Targets:

    putrsXLCD@buffer	PTR const unsigned char  size(2) Largest target is 5
		 -> STR_74(CODE[5]), STR_73(CODE[2]), STR_72(CODE[2]), STR_71(CODE[2]), 
		 -> STR_70(CODE[2]), STR_69(CODE[2]), STR_68(CODE[2]), STR_67(CODE[2]), 
		 -> STR_66(CODE[2]), STR_65(CODE[2]), STR_64(CODE[2]), STR_63(CODE[2]), 
		 -> STR_62(CODE[2]), STR_61(CODE[2]), STR_60(CODE[2]), STR_59(CODE[2]), 
		 -> STR_58(CODE[2]), STR_57(CODE[2]), STR_56(CODE[2]), STR_55(CODE[2]), 
		 -> STR_54(CODE[2]), STR_53(CODE[2]), STR_52(CODE[2]), STR_51(CODE[2]), 
		 -> STR_50(CODE[2]), STR_49(CODE[2]), STR_48(CODE[2]), STR_47(CODE[2]), 
		 -> STR_46(CODE[2]), STR_45(CODE[2]), STR_44(CODE[2]), STR_43(CODE[2]), 
		 -> STR_42(CODE[2]), STR_41(CODE[2]), STR_40(CODE[2]), STR_39(CODE[2]), 
		 -> STR_38(CODE[2]), STR_37(CODE[2]), STR_36(CODE[2]), STR_35(CODE[2]), 
		 -> STR_34(CODE[2]), STR_33(CODE[2]), STR_32(CODE[2]), STR_31(CODE[2]), 
		 -> STR_30(CODE[2]), STR_29(CODE[2]), STR_28(CODE[2]), STR_27(CODE[2]), 
		 -> STR_26(CODE[2]), STR_25(CODE[2]), STR_24(CODE[2]), STR_23(CODE[2]), 
		 -> STR_22(CODE[2]), STR_21(CODE[2]), STR_20(CODE[2]), STR_19(CODE[2]), 
		 -> STR_18(CODE[2]), STR_17(CODE[2]), STR_16(CODE[2]), STR_15(CODE[2]), 
		 -> STR_14(CODE[2]), STR_13(CODE[2]), STR_12(CODE[2]), STR_11(CODE[2]), 
		 -> STR_10(CODE[2]), STR_9(CODE[2]), STR_8(CODE[2]), STR_7(CODE[2]), 
		 -> STR_6(CODE[2]), STR_5(CODE[2]), STR_4(CODE[2]), STR_3(CODE[2]), 
		 -> STR_2(CODE[2]), STR_1(CODE[2]), 


Critical Paths under _main in COMRAM

    None.

Critical Paths under _InterruptPic in COMRAM

    _InterruptPic->i2_btnAtira
    i2_btnEsquerdo->i2_SetDDRamAddr
    i2_btnDireito->i2_SetDDRamAddr
    i2_btnAtira->i2_SetDDRamAddr
    i2_putrsXLCD->i2_WriteDataXLCD
    i2_DelayFor18TCY->i2_Delay10TCYx

Critical Paths under _main in BANK0

    _main->_btnAtira
    _init_XLCD->_OpenXLCD
    _OpenXLCD->_SetDDRamAddr
    _DelayPORXLCD->_Delay1KTCYx
    _controi_tank->_SetDDRamAddr
    _btnEsquerdo->_SetDDRamAddr
    _btnDireito->_SetDDRamAddr
    _btnAtira->_SetDDRamAddr
    _putrsXLCD->_WriteDataXLCD
    _DelayFor18TCY->_Delay10TCYx

Critical Paths under _InterruptPic in BANK0

    None.

Critical Paths under _main in BANK1

    None.

Critical Paths under _InterruptPic in BANK1

    None.

Critical Paths under _main in BANK2

    None.

Critical Paths under _InterruptPic in BANK2

    None.

Critical Paths under _main in BANK3

    None.

Critical Paths under _InterruptPic in BANK3

    None.

Critical Paths under _main in BANK4

    None.

Critical Paths under _InterruptPic in BANK4

    None.

Critical Paths under _main in BANK5

    None.

Critical Paths under _InterruptPic in BANK5

    None.

Critical Paths under _main in BANK6

    None.

Critical Paths under _InterruptPic in BANK6

    None.

Critical Paths under _main in BANK7

    None.

Critical Paths under _InterruptPic in BANK7

    None.

Call Graph Tables:

 ---------------------------------------------------------------------------------
 (Depth) Function   	        Calls       Base Space   Used Autos Params    Refs
 ---------------------------------------------------------------------------------
 (0) _main                                                 0     0      0   20658
                           _btnAtira
                         _btnDireito
                        _btnEsquerdo
                       _controi_tank
                          _iniciaPic
                          _init_XLCD
 ---------------------------------------------------------------------------------
 (1) _init_XLCD                                            0     0      0     308
                           _BusyXLCD
                           _OpenXLCD
                       _WriteCmdXLCD
 ---------------------------------------------------------------------------------
 (2) _OpenXLCD                                             1     1      0     220
                                              5 BANK0      1     1      0
                           _BusyXLCD
                       _Delay10KTCYx
                       _DelayPORXLCD
                       _SetDDRamAddr
                       _WriteCmdXLCD
 ---------------------------------------------------------------------------------
 (2) _WriteCmdXLCD                                         1     1      0      66
                                              1 BANK0      1     1      0
                      _DelayFor18TCY
 ---------------------------------------------------------------------------------
 (3) _DelayPORXLCD                                         0     0      0      22
                        _Delay1KTCYx
 ---------------------------------------------------------------------------------
 (4) _Delay1KTCYx                                          1     1      0      22
                                              0 BANK0      1     1      0
 ---------------------------------------------------------------------------------
 (1) _iniciaPic                                            0     0      0       0
 ---------------------------------------------------------------------------------
 (1) _controi_tank                                         4     4      0    4959
                                              5 BANK0      4     4      0
                       _SetDDRamAddr
                          _putrsXLCD
 ---------------------------------------------------------------------------------
 (1) _btnEsquerdo                                          0     0      0    4935
                       _SetDDRamAddr
                          _putrsXLCD
 ---------------------------------------------------------------------------------
 (1) _btnDireito                                           0     0      0    4935
                       _SetDDRamAddr
                          _putrsXLCD
 ---------------------------------------------------------------------------------
 (1) _btnAtira                                            72    72      0    5521
                                              5 BANK0     72    72      0
                       _Delay10KTCYx
                       _SetDDRamAddr
                          _putrsXLCD
 ---------------------------------------------------------------------------------
 (2) _putrsXLCD                                            2     0      2    4869
                                              2 BANK0      2     0      2
                           _BusyXLCD
                      _WriteDataXLCD
 ---------------------------------------------------------------------------------
 (3) _WriteDataXLCD                                        1     1      0      66
                                              1 BANK0      1     1      0
                      _DelayFor18TCY
 ---------------------------------------------------------------------------------
 (3) _BusyXLCD                                             0     0      0      22
                      _DelayFor18TCY
 ---------------------------------------------------------------------------------
 (3) _SetDDRamAddr                                         4     4      0      66
                                              1 BANK0      4     4      0
                      _DelayFor18TCY
 ---------------------------------------------------------------------------------
 (3) _DelayFor18TCY                                        0     0      0      22
                        _Delay10TCYx
 ---------------------------------------------------------------------------------
 (4) _Delay10TCYx                                          1     1      0      22
                                              0 BANK0      1     1      0
 ---------------------------------------------------------------------------------
 (3) _Delay10KTCYx                                         2     2      0      22
                                              0 BANK0      2     2      0
 ---------------------------------------------------------------------------------
 Estimated maximum stack depth 4
 ---------------------------------------------------------------------------------
 (Depth) Function   	        Calls       Base Space   Used Autos Params    Refs
 ---------------------------------------------------------------------------------
 (6) _InterruptPic                                        14    14      0    5527
                                             77 COMRAM    14    14      0
                     _rotina_segundo
                         i2_btnAtira
                       i2_btnDireito
                      i2_btnEsquerdo
 ---------------------------------------------------------------------------------
 (7) i2_btnEsquerdo                                        0     0      0    1655
                     i2_SetDDRamAddr
                        i2_putrsXLCD
 ---------------------------------------------------------------------------------
 (7) i2_btnDireito                                         0     0      0    1655
                     i2_SetDDRamAddr
                        i2_putrsXLCD
 ---------------------------------------------------------------------------------
 (7) i2_btnAtira                                          72    72      0    2217
                                              5 COMRAM    72    72      0
                     i2_Delay10KTCYx
                     i2_SetDDRamAddr
                        i2_putrsXLCD
 ---------------------------------------------------------------------------------
 (8) i2_putrsXLCD                                          2     0      2    1589
                                              2 COMRAM     2     0      2
                         i2_BusyXLCD
                    i2_WriteDataXLCD
 ---------------------------------------------------------------------------------
 (9) i2_WriteDataXLCD                                      1     1      0      66
                                              1 COMRAM     1     1      0
                    i2_DelayFor18TCY
 ---------------------------------------------------------------------------------
 (9) i2_BusyXLCD                                           0     0      0      22
                    i2_DelayFor18TCY
 ---------------------------------------------------------------------------------
 (8) i2_SetDDRamAddr                                       4     4      0      66
                                              1 COMRAM     4     4      0
                    i2_DelayFor18TCY
 ---------------------------------------------------------------------------------
 (10) i2_DelayFor18TCY                                     0     0      0      22
                      i2_Delay10TCYx
 ---------------------------------------------------------------------------------
 (11) i2_Delay10TCYx                                       1     1      0      22
                                              0 COMRAM     1     1      0
 ---------------------------------------------------------------------------------
 (8) i2_Delay10KTCYx                                       2     2      0      22
                                              0 COMRAM     2     2      0
 ---------------------------------------------------------------------------------
 (7) _rotina_segundo                                       0     0      0       0
 ---------------------------------------------------------------------------------
 Estimated maximum stack depth 11
 ---------------------------------------------------------------------------------

 Call Graph Graphs:

 _main (ROOT)
   _btnAtira
     _Delay10KTCYx
     _SetDDRamAddr
       _DelayFor18TCY
         _Delay10TCYx
     _putrsXLCD
       _BusyXLCD
         _DelayFor18TCY
           _Delay10TCYx
       _WriteDataXLCD
         _DelayFor18TCY
           _Delay10TCYx
   _btnDireito
     _SetDDRamAddr
       _DelayFor18TCY
         _Delay10TCYx
     _putrsXLCD
       _BusyXLCD
         _DelayFor18TCY
           _Delay10TCYx
       _WriteDataXLCD
         _DelayFor18TCY
           _Delay10TCYx
   _btnEsquerdo
     _SetDDRamAddr
       _DelayFor18TCY
         _Delay10TCYx
     _putrsXLCD
       _BusyXLCD
         _DelayFor18TCY
           _Delay10TCYx
       _WriteDataXLCD
         _DelayFor18TCY
           _Delay10TCYx
   _controi_tank
     _SetDDRamAddr
       _DelayFor18TCY
         _Delay10TCYx
     _putrsXLCD
       _BusyXLCD
         _DelayFor18TCY
           _Delay10TCYx
       _WriteDataXLCD
         _DelayFor18TCY
           _Delay10TCYx
   _iniciaPic
   _init_XLCD
     _BusyXLCD
       _DelayFor18TCY
         _Delay10TCYx
     _OpenXLCD
       _BusyXLCD
         _DelayFor18TCY
           _Delay10TCYx
       _Delay10KTCYx
       _DelayPORXLCD
         _Delay1KTCYx
       _SetDDRamAddr
         _DelayFor18TCY
           _Delay10TCYx
       _WriteCmdXLCD
         _DelayFor18TCY
           _Delay10TCYx
     _WriteCmdXLCD
       _DelayFor18TCY
         _Delay10TCYx

 _InterruptPic (ROOT)
   _rotina_segundo
   i2_btnAtira
     i2_Delay10KTCYx
     i2_SetDDRamAddr
       i2_DelayFor18TCY
         i2_Delay10TCYx
     i2_putrsXLCD
       i2_BusyXLCD
         i2_DelayFor18TCY
           i2_Delay10TCYx
       i2_WriteDataXLCD
         i2_DelayFor18TCY
           i2_Delay10TCYx
   i2_btnDireito
     i2_SetDDRamAddr
       i2_DelayFor18TCY
         i2_Delay10TCYx
     i2_putrsXLCD
       i2_BusyXLCD
         i2_DelayFor18TCY
           i2_Delay10TCYx
       i2_WriteDataXLCD
         i2_DelayFor18TCY
           i2_Delay10TCYx
   i2_btnEsquerdo
     i2_SetDDRamAddr
       i2_DelayFor18TCY
         i2_Delay10TCYx
     i2_putrsXLCD
       i2_BusyXLCD
         i2_DelayFor18TCY
           i2_Delay10TCYx
       i2_WriteDataXLCD
         i2_DelayFor18TCY
           i2_Delay10TCYx

 Address spaces:
Name               Size   Autos  Total    Cost      Usage
BIGRAM             7FF      0       0      21        0.0%
EEDATA             100      0       0       0        0.0%
BITBANK7           100      0       0      18        0.0%
BANK7              100      0       0      19        0.0%
BITBANK6           100      0       0      16        0.0%
BANK6              100      0       0      17        0.0%
BITBANK5           100      0       0      14        0.0%
BANK5              100      0       0      15        0.0%
BITBANK4           100      0       0      12        0.0%
BANK4              100      0       0      13        0.0%
BITBANK3           100      0       0      10        0.0%
BANK3              100      0       0      11        0.0%
BITBANK2           100      0       0       8        0.0%
BANK2              100      0       0       9        0.0%
BITBANK1           100      0       0       6        0.0%
BANK1              100      0      3C       7       23.4%
BITBANK0            A0      0       0       4        0.0%
BANK0               A0     4D      99       5       95.6%
BITCOMRAM           5E      0       0       0        0.0%
COMRAM              5E     5B      5D       1       98.9%
BITSFR               0      0       0     200        0.0%
SFR                  0      0       0     200        0.0%
STACK                0      0       0       2        0.0%
NULL                 0      0       0       0        0.0%
ABS                  0      0     132      20        0.0%
DATA                 0      0     132       3        0.0%
CODE                 0      0       0       0        0.0%


Microchip Technology PIC18 Macro Assembler V1.41 build -162212810 
Symbol Table                                                                                   Mon Dec 11 15:16:47 2017

                       _i 00EF                         _x 00F5                        l41 1C4E  
                      l45 1C5A                        l49 1C66                       l156 113A  
                     l280 1B86                       u905 18F0     __size_of_WriteCmdXLCD 0044  
                     wreg 000FE8       i2WriteDataXLCD@data 0002                i2_btnAtira 0BFE  
                    l2029 1CDA                      l2223 1BD6                      l2039 1CC6  
                    l2069 1C92                      l2229 1BF6                      l2423 1230  
                    l2407 11B6                      l2271 1804                      l2263 17E4  
                    l2601 0ADC                      l2257 17C8                      l2603 0AF2  
                    l2275 1814                      l2267 17F4                      l2259 17D2  
                    l2363 1C76                      l2613 0B2A                      l2605 0AFA  
                    l2541 0886                      l2525 1118                      l2509 109C  
                    l2455 1328                      l2439 12AC                      l2279 1824  
                    l2625 0BBE                      l2553 091A                      l2627 0BD4  
                    l2555 0930                      l2629 0BDC                      l2565 0966  
                    l2581 0A18                      l2557 0938                      l2493 1020  
                    l2477 0FA6                      l2577 09FA                      l2579 0A10  
                    l2589 0A48                      l2883 1C4A                      l2895 1C62  
                    l2889 1C56                      STR_1 0806                      STR_2 0806  
                    STR_3 0806                      STR_4 0806                      STR_5 080A  
                    STR_6 0806       __end_ofi2_putrsXLCD 1C3E                      STR_7 0806  
                    STR_8 0806                      STR_9 0806                      u1161 081A  
                    u1171 082C                      u1181 083E                      u1191 0850  
                    u1280 0BF2                      u1807 1CDC                      u1817 1C9A  
                    _PEIE 007F96                      u1797 1CC8                      _RCIE 007CED  
                    _RCIF 007CF5                      _RCIP 007CFD                      i2l63 1722  
                    i2l71 1752                      i2l67 172E                      i2l59 1716  
                    _TMR0 000FD6                      _main 1C3E                      _tela 00F7  
                    fsr0h 000FEA                      fsr1h 000FE2                      fsr2h 000FDA  
                    fsr0l 000FE9                      indf2 000FDF                      fsr1l 000FE1  
                    fsr2l 000FD9                      btemp 005E    __size_of_WriteDataXLCD 0044  
                    prodh 000FF4                      prodl 000FF3                      start 000E  
            ___param_bank 000000               _Delay10TCYx 1CD6              _WriteCmdXLCD 19E4  
        ?i2_DelayFor18TCY 0001               _Delay1KTCYx 1CC2             ?_controi_tank 0001  
           ?_SetDDRamAddr 0001                     ?_main 0001                     STR_10 080A  
                   STR_11 0806                     STR_12 0806                     STR_20 080A  
                   STR_21 0806                     STR_13 0806                     STR_22 0806  
                   STR_14 0806                     STR_30 080A                     STR_31 0806  
                   STR_23 0806                     STR_15 080A                     STR_32 0806  
                   STR_24 0806                     STR_16 0806                     STR_40 080A  
                   STR_41 0806                     STR_33 0806                     STR_17 0806  
                   STR_25 080A                     STR_42 0806                     STR_34 0806  
                   STR_26 0806                     STR_18 0806                     STR_50 0808  
                   STR_43 0806                     STR_27 0806                     STR_19 0806  
                   STR_51 0808                     STR_35 080A                     STR_60 0806  
                   STR_52 0806                     STR_44 0806                     STR_36 0806  
                   STR_28 0806                     STR_61 0806                     STR_53 0806  
                   STR_37 0806                     STR_29 0806                     STR_45 080A  
                   STR_38 0806                     STR_54 0808                     STR_62 080C  
                   STR_46 0808                     STR_39 0806                     STR_55 0808  
                   STR_47 0808                     STR_56 0806                     STR_48 0806  
                   STR_57 0806                     STR_49 0806                     STR_58 0808  
                   STR_74 0801                     STR_59 0808                     i2l156 1506  
                   i2l280 1BC0         i2putrsXLCD@buffer 0003         i2Delay10TCYx@unit 0001  
                   _RCSTA 000FAB                     _SPBRG 000FAF                     _PORTB 000F81  
                   _TRISB 000F93     __size_of_Delay10KTCYx 001E                     _TXSTA 000FAC  
   __size_ofi2_btnDireito 01BC                     _matar 005C                     pclath 000FFA  
             ?i2_BusyXLCD 0001                     tablat 000FF5        i2Delay10KTCYx@unit 0002  
                   plusw1 000FE3                     plusw2 000FDB                     status 000FD8  
         __initialization 1934              __end_of_main 1C70          __end_of_BusyXLCD 1B9A  
        ??i2_SetDDRamAddr 0002              _Delay10KTCYx 1C8E     __size_of_DelayPORXLCD 0008  
          ??_controi_tank 0065              i2_btnDireito 1508            ??_SetDDRamAddr 0061  
        __end_of_OpenXLCD 1836                    ??_main 00AD   __size_ofi2_Delay10KTCYx 0016  
           __activetblptr 000002             _WriteDataXLCD 1A28               i2_putrsXLCD 1C0A  
          _rotina_segundo 1D12               ?i2_btnAtira 0001                    i2l2033 1CEC  
                  i2l2319 1CAE                    i2l2293 1C2A                    i2l2287 1C0C  
                  i2l2801 0CF6                    i2l2721 13AE                    i2l2651 156E  
                  i2l2821 0D8E                    i2l2823 0D9E                    i2l2833 0DD0  
                  i2l2809 0D1E                    i2l2825 0DA6                    i2l2753 147C  
                  i2l2737 1414                    i2l2921 172A                    i2l2683 163C  
                  i2l2667 15D4                    i2l2915 171E                    i2l2845 0E40  
                  i2l2871 0F02                    i2l2847 0E50                    i2l2927 1736  
                  i2l2857 0E82                    i2l2873 0F0A                    i2l2849 0E58  
                  i2l2785 0C6E                    i2l2769 14E4                    i2l2699 16A4  
                  i2l2869 0EF2                    i2l2797 0CDE                    i2l2799 0CEE  
__size_ofi2_WriteDataXLCD 003E      __size_of_btnEsquerdo 0210                    _TMR0IF 007F92  
           ?_InterruptPic 0001              _DelayPORXLCD 1CFA          __end_of_btnAtira 0BFE  
   __end_ofi2_Delay10TCYx 1CFA    __size_ofi2_btnEsquerdo 01C0                    clear_0 197A  
     __size_ofi2_BusyXLCD 003A            ?_WriteDataXLCD 0001    __end_of_rotina_segundo 1D1A  
            __mediumconst 0000                    tblptrh 000FF7                    tblptrl 000FF6  
                  tblptru 000FF8           btnAtira@coluna0 00A5           btnAtira@coluna1 00A7  
         btnAtira@coluna2 00A9           btnAtira@coluna3 00AB            ??_InterruptPic 004E  
              __accesstop 0060   __end_of__initialization 1984           __CFG_PBADEN$OFF 000000  
           ___rparam_used 000001            __pcstackCOMRAM 0001              __pidataBANK0 1A6C  
            __pidataBANK1 1AEA       __size_ofi2_btnAtira 032E           ?_rotina_segundo 0001  
  __size_of_DelayFor18TCY 0008                __pbssBANK0 00ED                 ?_BusyXLCD 0001  
           i2_btnEsquerdo 1348        __size_of_iniciaPic 003A           WriteCmdXLCD@cmd 0061  
    __end_of_controi_tank 18D0      __end_of_SetDDRamAddr 1934        __size_of_init_XLCD 001E  
               ?_OpenXLCD 0001         ??i2_WriteDataXLCD 0002         WriteDataXLCD@data 0061  
            ?_Delay10TCYx 0001           ??_WriteDataXLCD 0061              ?_Delay1KTCYx 0001  
              _btnDireito 113C            i2_Delay10KTCYx 1CAC                 ?_btnAtira 0001  
          ?i2_btnEsquerdo 0001              ??i2_BusyXLCD 0002        __size_of_putrsXLCD 0036  
              ??_BusyXLCD 0061                ??_OpenXLCD 0065      i2btnAtira@pos_linha0 000A  
    i2btnAtira@pos_linha1 0019      i2btnAtira@pos_linha2 0028      i2btnAtira@pos_linha3 0037  
                 __Hparam 0000                   __Lparam 0000             _DelayFor18TCY 1D02  
            __psmallconst 0800    __end_ofi2_Delay10KTCYx 1CC2                   __pcinit 1934  
         putrsXLCD@buffer 0062           Delay10TCYx@unit 0060                   __ramtop 0800  
       __end_of_iniciaPic 1B60                   __ptext0 1C3E                   __ptext1 1C70  
                 __ptext2 178E                   __ptext3 19E4                   __ptext4 1CFA  
                 __ptext5 1CC2                   __ptext6 1B26                   __ptext7 1836  
                 __ptext8 0F2C                   __ptext9 113C      __end_of_InterruptPic 178E  
       __end_of_init_XLCD 1C8E        __end_ofi2_BusyXLCD 1BD4                 _T0CONbits 000FD5  
            ?i2_putrsXLCD 0003  __size_ofi2_DelayFor18TCY 0008              ??i2_btnAtira 0006  
              ??_btnAtira 0065            obstaculo@F4920 010F            obstaculo@F4922 0100  
          obstaculo@F4916 012D            obstaculo@F4918 011E            __pintcode_body 16C4  
    end_of_initialization 1984             __Lmediumconst 0000                   int_func 16C4  
          ?_DelayFor18TCY 0001                   postdec1 000FE5                   postinc0 000FEE  
      __end_ofi2_btnAtira 0F2C               ?_btnDireito 0001           ?i2_Delay10KTCYx 0001  
       __end_of_putrsXLCD 1C0A                 _PORTDbits 000F83                 _TRISBbits 000F93  
               _TRISCbits 000F94           ??i2_btnEsquerdo 0006     __size_of_controi_tank 009A  
   __size_of_SetDDRamAddr 0064             ??_btnEsquerdo 0065          ??_rotina_segundo 0001  
    __size_of_Delay10TCYx 0014              _controi_tank 1836              _SetDDRamAddr 18D0  
    __size_of_Delay1KTCYx 0014        SetDDRamAddr@DDaddr 0064       start_initialization 1934  
 __size_ofi2_SetDDRamAddr 0052           i2_WriteDataXLCD 1AAC    __size_ofi2_Delay10TCYx 0010  
       ??i2_DelayFor18TCY 0002       __size_of_btnDireito 020C         __size_of_BusyXLCD 003A  
     __end_of_btnEsquerdo 113C           ??_DelayFor18TCY 0061         __size_of_OpenXLCD 00A8  
   __size_of_InterruptPic 1786             ?_WriteCmdXLCD 0001               __pdataBANK0 00AD  
             __pdataBANK1 0100               __pbssCOMRAM 005C             __pcstackBANK0 0060  
    __size_ofi2_putrsXLCD 0034           Delay1KTCYx@unit 0060         __size_of_btnAtira 03EE  
            _InterruptPic 0008                 __pintcode 0008            ??_WriteCmdXLCD 0061  
           ?_Delay10KTCYx 0001             i2_Delay10TCYx 1CEA             ?i2_btnDireito 0001  
       controi_tank@F4902 00E9     __end_of_WriteDataXLCD 1A6C               __smallconst 0800  
 __end_ofi2_WriteDataXLCD 1AEA                 _iniciaPic 1B26                 _init_XLCD 1C70  
             _btnEsquerdo 0F2C                  _LATBbits 000F8A             ?_DelayPORXLCD 0001  
                i2u104_45 19A8                  i2u140_41 0C1A                  i2u141_41 0C2C  
                i2u142_41 0C3E                  i2u151_40 0F20                  i2u139_41 0C08  
        ??i2_Delay10KTCYx 0001                  i2u182_47 1CEE                  i2u183_47 1CB4  
         OpenXLCD@lcdtype 0065            ??_Delay10KTCYx 0060            ?i2_Delay10TCYx 0001  
          ??i2_btnDireito 0006              ??_btnDireito 0065                 _putrsXLCD 1BD4  
              ?_iniciaPic 0001            i2_SetDDRamAddr 1992          Delay10KTCYx@unit 0061  
              ?_init_XLCD 0001                 copy_data0 1948                 copy_data1 1968  
                _BusyXLCD 1B60             btnAtira@F4910 00AD             btnAtira@F4904 00DA  
           btnAtira@F4906 00CB             btnAtira@F4908 00BC        __end_of_btnDireito 1348  
          ??_DelayPORXLCD 0061                  _OpenXLCD 178E                  __Hrparam 0000  
                __Lrparam 0000    __end_ofi2_SetDDRamAddr 19E4           i2_DelayFor18TCY 1D0A  
              ?_putrsXLCD 0062          ?i2_WriteDataXLCD 0001                  _btnAtira 0810  
                __ptext10 0810                  __ptext11 1BD4                  __ptext20 1508  
                __ptext12 1A28                  __ptext21 0BFE                  __ptext13 1B60  
                __ptext22 1C0A                  __ptext14 18D0                  __ptext23 1AAC  
                __ptext15 1D02                  __ptext24 1B9A                  __ptext16 1CD6  
                __ptext25 1992                  __ptext17 1C8E                  __ptext26 1D0A  
                __ptext27 1CEA                  __ptext19 1348                  __ptext28 1CAC  
                __ptext29 1D12       controi_tank@pos_vet 0065      __end_of_WriteCmdXLCD 1A28  
   __end_ofi2_btnEsquerdo 1508                  _cont_dez 00F3                  _cont_seg 00F1  
                _controle 00ED             __size_of_main 0032           ??i2_Delay10TCYx 0001  
           ??_Delay10TCYx 0060                  int$flags 005E             ??_Delay1KTCYx 0060  
         ?i2_SetDDRamAddr 0001                _INTCONbits 000FF2               ??_iniciaPic 0060  
             ??_init_XLCD 0066      __end_of_Delay10KTCYx 1CAC         i2btnAtira@coluna0 0046  
       i2btnAtira@coluna1 0048         i2btnAtira@coluna2 004A         i2btnAtira@coluna3 004C  
                intlevel2 0000      __end_ofi2_btnDireito 16C4     __end_of_DelayFor18TCY 1D0A  
 __end_ofi2_DelayFor18TCY 1D12       __end_of_Delay10TCYx 1CEA             ??i2_putrsXLCD 0005  
    __end_of_DelayPORXLCD 1D02      i2SetDDRamAddr@DDaddr 0005               ??_putrsXLCD 0064  
     __end_of_Delay1KTCYx 1CD6   __size_of_rotina_segundo 0008              ?_btnEsquerdo 0001  
              i2_BusyXLCD 1B9A        btnAtira@pos_linha0 0069        btnAtira@pos_linha1 0078  
      btnAtira@pos_linha2 0087        btnAtira@pos_linha3 0096  
